(dp0
Vindex2word
p1
(dp2
I0
S'SOS'
p3
sI1
S'EOS'
p4
sI2
Vi
p5
sI3
Vm
p6
sI4
V.
p7
sI5
Vok
p8
sI6
Vfat
p9
sI7
Vold
p10
sI8
Vsad
p11
sI9
Vshy
p12
sI10
Vam
p13
sI11
Vcan
p14
sI12
Vgo
p15
sI13
Vback
p16
sI14
Vbald
p17
sI15
Vbusy
p18
sI16
Vfine
p19
sI17
Vfree
p20
sI18
Vfull
p21
sI19
Vgame
p22
sI20
Vhere
p23
sI21
Vlate
p24
sI22
Vokay
p25
sI23
Vrich
p26
sI24
Vsick
p27
sI25
Vtall
p28
sI26
Vugly
p29
sI27
Vweak
p30
sI28
Vwell
p31
sI29
Veat
p32
sI30
V?
p33
sI31
Vhe
p34
sI32
Vis
p35
sI33
Vill
p36
sI34
Vs
p37
sI35
Va
p38
sI36
Vdj
p39
sI37
Vfast
p40
sI38
Vgood
p41
sI39
Vlazy
p42
sI40
Vsure
p43
sI41
Vfly
p44
sI42
Vrun
p45
sI43
Vski
p46
sI44
Vwas
p47
sI45
Vman
p48
sI46
Vangry
p49
sI47
Vawake
p50
sI48
Vbored
p51
sI49
Vbroke
p52
sI50
Vdying
p53
sI51
Vgoing
p54
sI52
Vhappy
p55
sI53
Vready
p56
sI54
V!
p57
sI55
Vright
p58
sI56
Vsober
p59
sI57
Vsorry
p60
sI58
Vtired
p61
sI59
Vupset
p62
sI60
Vhelp
p63
sI61
Vstay
p64
sI62
Vkind
p65
sI63
Vmean
p66
sI64
Vpoor
p67
sI65
Vswiss
p68
sI66
Vcruel
p69
sI67
Vlying
p70
sI68
Vsmart
p71
sI69
Vboy
p72
sI70
Vhuman
p73
sI71
Vsing
p74
sI72
Vswim
p75
sI73
Vwait
p76
sI74
Vt
p77
sI75
Vrude
p78
sI76
Vfrench
p79
sI77
Vkorean
p80
sI78
Vhero
p81
sI79
Vafraid
p82
sI80
Vanemic
p83
sI81
Vbetter
p84
sI82
Vcoming
p85
sI83
Veating
p86
sI84
Vfamous
p87
sI85
Vhiding
p88
sI86
Vhungry
p89
sI87
Vin
p90
sI88
Vbed
p91
sI89
Vlonely
p92
sI90
Vlosing
p93
sI91
Vruined
p94
sI92
Vscared
p95
sI93
Vsleepy
p96
sI94
Vso
p97
sI95
Vshe
p98
sI96
Vsmiled
p99
sI97
Vwe
p100
sI98
Vare
p101
sI99
Vmen
p102
sI100
Vre
p103
sI101
Vcold
p104
sI102
Veven
p105
sI103
Vhome
p106
sI104
Vyou
p107
sI105
Vit
p108
sI106
Valone
p109
sI107
Veight
p110
sI108
Vhated
p111
sI109
Vjerk
p112
sI110
Vliar
p113
sI111
Vasleep
p114
sI112
Vcrying
p115
sI113
Vloaded
p116
sI114
Vmy
p117
sI115
Vage
p118
sI116
Vnot
p119
sI117
Vstrong
p120
sI118
Vwasted
p121
sI119
Vcook
p122
sI120
Vmonk
p123
sI121
Vtwin
p124
sI122
Vdozing
p125
sI123
Vjoking
p126
sI124
Vonline
p127
sI125
Vsingle
p128
sI126
Vtaller
p129
sI127
Vdo
p130
sI128
Vsay
p131
sI129
Vdrunk
p132
sI130
Vfired
p133
sI131
Vlucky
p134
sI132
Vmoved
p135
sI133
Vnaive
p136
sI134
Vwrong
p137
sI135
Vtoo
p138
sI136
Vitalian
p139
sI137
Vturkish
p140
sI138
Vbaker
p141
sI139
Vchild
p142
sI140
Vklutz
p143
sI141
Vloner
p144
sI142
Vnurse
p145
sI143
Vat
p146
sI144
Vcareful
p147
sI145
Vcertain
p148
sI146
Vcurious
p149
sI147
Vdancing
p150
sI148
Vdieting
p151
sI149
Vhealthy
p152
sI150
Vhumming
p153
sI151
Vpain
p154
sI152
Vjealous
p155
sI153
Vleaving
p156
sI154
Vmarried
p157
sI155
Vnervous
p158
sI156
Vno
p159
sI157
Vtom
p160
sI158
Vpatient
p161
sI159
Vresting
p162
sI160
Vnow
p163
sI161
Vserious
p164
sI162
Vsincere
p165
sI163
Vstarved
p166
sI164
Vstuffed
p167
sI165
Vstunned
p168
sI166
Vtalking
p169
sI167
Vthe
p170
sI168
Vlaw
p171
sI169
Vthirsty
p172
sI170
Vunhappy
p173
sI171
Vunlucky
p174
sI172
Vunusual
p175
sI173
Vuseless
p176
sI174
Vwealthy
p177
sI175
Vwinning
p178
sI176
Vwounded
p179
sI177
Varmed
p180
sI178
Vclose
p181
sI179
Vdizzy
p182
sI180
Vearly
p183
sI181
Vsaved
p184
sI182
Vyoung
p185
sI183
Vcute
p186
sI184
Vfair
p187
sI185
Vnuts
p188
sI186
Vvain
p189
sI187
Vwise
p190
sI188
Vpoet
p191
sI189
Vchubby
p192
sI190
Vcranky
p193
sI191
Vdriven
p194
sI192
Vheroic
p195
sI193
Venglish
p196
sI194
Vbigot
p197
sI195
Vchinese
p198
sI196
Vashamed
p199
sI197
Vbaffled
p200
sI198
Vinjured
p201
sI199
Vpraying
p202
sI200
Vtry
p203
sI201
Vdraw
p204
sI202
Vmove
p205
sI203
Vread
p206
sI204
Vtalk
p207
sI205
Vwalk
p208
sI206
Vfool
p209
sI207
Vshaken
p210
sI208
Vcanadian
p211
sI209
Vcoward
p212
sI210
Vdoctor
p213
sI211
Vfriend
p214
sI212
Vgenius
p215
sI213
Vpurist
p216
sI214
Vaddicted
p217
sI215
Vall
p218
sI216
Vears
p219
sI217
Vdivorced
p220
sI218
Vdrowning
p221
sI219
Veighteen
p222
sI220
Vescaping
p223
sI221
Vfighting
p224
sI222
Vfinished
p225
sI223
Vfreezing
p226
sI224
Vgullible
p227
sI225
Vhorrible
p228
sI226
Vhungover
p229
sI227
Vparis
p230
sI228
Vjam
p231
sI229
Vinnocent
p232
sI230
Vrebel
p233
sI231
Vsaint
p234
sI232
Vdead
p235
sI233
Vdeaf
p236
sI234
Vdone
p237
sI235
Vevil
p238
sI236
Vhurt
p239
sI237
Voff
p240
sI238
Vbeer
p241
sI239
Voffended
p242
sI240
Vshooting
p243
sI241
Vsleeping
p244
sI242
Vspeaking
p245
sI243
Vstanding
p246
sI244
Vstarving
p247
sI245
Vbest
p248
sI246
Vupstairs
p249
sI247
Vvery
p250
sI248
Vworn
p251
sI249
Vout
p252
sI250
Vfox
p253
sI251
Vquiet
p254
sI252
Vshot
p255
sI253
Vhim
p256
sI254
Vstood
p257
sI255
Vup
p258
sI256
Vsued
p259
sI257
Vbabe
p260
sI258
Vthey
p261
sI259
Vbig
p262
sI260
Vgone
p263
sI261
Vlost
p264
sI262
Varabs
p265
sI263
Vbiased
p266
sI264
Vclosed
p267
sI265
Vdating
p268
sI266
Vdoomed
p269
sI267
Vpaying
p270
sI268
Vtrying
p271
sI269
Vfunny
p272
sI270
Vgross
p273
sI271
Vmoody
p274
sI272
Vsilly
p275
sI273
Vsweet
p276
sI274
Vvague
p277
sI275
Vwitty
p278
sI276
Vask
p279
sI277
Vwhy
p280
sI278
Vjoin
p281
sI279
Vthief
p282
sI280
Vtype
p283
sI281
Vreading
p284
sI282
Vaustrian
p285
sI283
Vgrouch
p286
sI284
Vjesuit
p287
sI285
Vlawyer
p288
sI286
Vafter
p289
sI287
Vme
p290
sI288
Vannoying
p291
sI289
Vautistic
p292
sI290
Vfriendly
p293
sI291
Vtokyo
p294
sI292
Vstudying
p295
sI293
Vamerican
p296
sI294
Vjapanese
p297
sI295
Vmuslim
p298
sI296
Vcoughing
p299
sI297
Vdiabetic
p300
sI298
Vsneezing
p301
sI299
Vto
p302
sI300
Vblame
p303
sI301
Vbe
p304
sI302
Vmore
p305
sI303
Vthat
p306
sI304
Vthis
p307
sI305
Vfeel
p308
sI306
Vdrive
p309
sI307
Von
p310
sI308
Vleave
p311
sI309
Vsleep
p312
sI310
Vsmoke
p313
sI311
Vstand
p314
sI312
Vwatch
p315
sI313
Vwork
p316
sI314
Vcorrect
p317
sI315
Vfurious
p318
sI316
Vinvited
p319
sI317
Vtempted
p320
sI318
Vworried
p321
sI319
Vwasn
p322
sI320
Vdad
p323
sI321
Vmom
p324
sI322
Vredhead
p325
sI323
Vstudent
p326
sI324
Vsuspect
p327
sI325
Vteacher
p328
sI326
Vtourist
p329
sI327
Van
p330
sI328
Vaddict
p331
sI329
Vartist
p332
sI330
Vorphan
p333
sI331
Vattentive
p334
sI332
Vbeautiful
p335
sI333
Vconvinced
p336
sI334
Veasygoing
p337
sI335
Vexhausted
p338
sI336
Vexpecting
p339
sI337
Vflattered
p340
sI338
Vmad
p341
sI339
Vimportant
p342
sI340
Vimpressed
p343
sI341
Vboston
p344
sI342
Vgang
p345
sI343
Vdanger
p346
sI344
Vdenial
p347
sI345
Vjust
p348
sI346
Vmiserable
p349
sI347
Vmotivated
p350
sI348
Vexpert
p351
sI349
Vspy
p352
sI350
Vcrazy
p353
sI351
Vobese
p354
sI352
Vdiet
p355
sI353
Vown
p356
sI354
Vway
p357
sI355
Vover
p358
sI356
Vsafe
p359
sI357
Vsatisfied
p360
sI358
Vscreaming
p361
sI359
Vuninsured
p362
sI360
Vyour
p363
sI361
Vboss
p364
sI362
Vactive
p365
sI363
Vcutie
p366
sI364
Vwife
p367
sI365
Vfools
p368
sI366
Vspies
p369
sI367
Vcousins
p370
sI368
Vdoctors
p371
sI369
Vengaged
p372
sI370
Vfasting
p373
sI371
Vfriends
p374
sI372
Vkidding
p375
sI373
Vlawyers
p376
sI374
Vstaying
p377
sI375
Vtrapped
p378
sI376
Vwinners
p379
sI377
Vworking
p380
sI378
Vinsane
p381
sI379
Vson
p382
sI380
Vpretty
p383
sI381
Vstupid
p384
sI382
Vunfair
p385
sI383
Vunkind
p386
sI384
Vwicked
p387
sI385
Vfirst
p388
sI386
Vkiss
p389
sI387
Vsee
p390
sI388
Vsit
p391
sI389
Vdown
p392
sI390
Vtouch
p393
sI391
Vuse
p394
sI392
Vtrue
p395
sI393
Vwriter
p396
sI394
Vactor
p397
sI395
Vbankrupt
p398
sI396
Vdelicate
p399
sI397
Vuncle
p400
sI398
Voutgoing
p401
sI399
Visn
p402
sI400
Vbit
p403
sI401
Vbutcher
p404
sI402
Vfanatic
p405
sI403
Vgambler
p406
sI404
Vsamurai
p407
sI405
Vslacker
p408
sI406
Vyes
p409
sI407
Vanimal
p410
sI408
Vauthor
p411
sI409
Vex
p412
sI410
Vcon
p413
sI411
Voutlaw
p414
sI412
Vhenpecked
p415
sI413
Vfather
p416
sI414
Vhungarian
p417
sI415
Vlondon
p418
sI416
Vshort
p419
sI417
Vprove
p420
sI418
Vget
p421
sI419
Vcaptured
p422
sI420
Vconfused
p423
sI421
Vdreaming
p424
sI422
Vduty
p425
sI423
Voutdoors
p426
sI424
Vtortured
p427
sI425
Vhired
p428
sI426
Vaunt
p429
sI427
Vbeginner
p430
sI428
Vguy
p431
sI429
Vmusician
p432
sI430
Vnice
p433
sI431
Vpacifist
p434
sI432
Vprisoner
p435
sI433
Vsalesman
p436
sI434
Vteenager
p437
sI435
Vagainst
p438
sI436
Vatheist
p439
sI437
Vofficer
p440
sI438
Vtoday
p441
sI439
Vdevastated
p442
sI440
Vdoing
p443
sI441
Vdownstairs
p444
sI442
Vfrom
p445
sI443
Vkyoto
p446
sI444
Vhaving
p447
sI445
Vfun
p448
sI446
Villiterate
p449
sI447
Vhurry
p450
sI448
Vtrouble
p451
sI449
Vinterested
p452
sI450
Vmaking
p453
sI451
Vtea
p454
sI452
Vmeditating
p455
sI453
Vquitter
p456
sI454
Vbaby
p457
sI455
Vguilty
p458
sI456
Voften
p459
sI457
Vholiday
p460
sI458
Vonly
p461
sI459
Voptimistic
p462
sI460
Voverworked
p463
sI461
Vquite
p464
sI462
Vreally
p465
sI463
Vexcited
p466
sI464
Vstill
p467
sI465
Voldest
p468
sI466
Vthirty
p469
sI467
Vundressing
p470
sI468
Vunemployed
p471
sI469
Vuntalented
p472
sI470
Vwide
p473
sI471
Vawkward
p474
sI472
Vrunning
p475
sI473
Vseems
p476
sI474
Vgun
p477
sI475
Vsings
p478
sI476
Vsmells
p479
sI477
Vbad
p480
sI478
Vhottie
p481
sI479
Vangel
p482
sI480
Vpregnant
p483
sI481
Vloud
p484
sI482
Vinside
p485
sI483
Vfamily
p486
sI484
Vbrothers
p487
sI485
Vdecisive
p488
sI486
Vgrateful
p489
sI487
Vhelpless
p490
sI488
Vpartners
p491
sI489
Vreliable
p492
sI490
Vstudents
p493
sI491
Vmorons
p494
sI492
Vloser
p495
sI493
Vamazing
p496
sI494
Vlove
p497
sI495
Vluck
p498
sI496
Vgod
p499
sI497
Vfit
p500
sI498
Vselfish
p501
sI499
Vwelcome
p502
sI500
Vbring
p503
sI501
Vcome
p504
sI502
Vdog
p505
sI503
Vkeep
p506
sI504
Vtrust
p507
sI505
Vethiopian
p508
sI506
Vpainter
p509
sI507
Vpsychic
p510
sI508
Vsly
p511
sI509
Vthere
p512
sI510
Vunmarried
p513
sI511
Vcomedian
p514
sI512
Vfrat
p515
sI513
Vgardener
p516
sI514
Vsouthpaw
p517
sI515
Vantisocial
p518
sI516
Vhelping
p519
sI517
Vher
p520
sI518
Vbrother
p521
sI519
Vhis
p522
sI520
Vforty
p523
sI521
Vparaplegic
p524
sI522
Vphotogenic
p525
sI523
Vchina
p526
sI524
Vspain
p527
sI525
Vspeechless
p528
sI526
Vafford
p529
sI527
Vhandle
p530
sI528
Vbreathe
p531
sI529
Vdeny
p532
sI530
Vhear
p533
sI531
Vrisk
p534
sI532
Vundo
p535
sI533
Vcouldn
p536
sI534
Vstop
p537
sI535
Vwitness
p538
sI536
Vschool
p539
sI537
Vborn
p540
sI538
Vcourteous
p541
sI539
Vdismissed
p542
sI540
Vmortified
p543
sI541
Vbike
p544
sI542
Vsent
p545
sI543
Vskeptical
p546
sI544
Vhonest
p547
sI545
Vwish
p548
sI546
Vd
p549
sI547
Vniece
p550
sI548
Vtv
p551
sI549
Vtipsy
p552
sI550
Vcarpenter
p553
sI551
Vchauffeur
p554
sI552
Vcommunist
p555
sI553
Vdetective
p556
sI554
Vhousewife
p557
sI555
Vnight
p558
sI556
Vowl
p559
sI557
Vpoliceman
p560
sI558
Vable
p561
sI559
Vabout
p562
sI560
Vadventurous
p563
sI561
Valmost
p564
sI562
Valways
p565
sI563
Vengineer
p566
sI564
Voptimist
p567
sI565
Vbegging
p568
sI566
Vcatching
p569
sI567
Vcolor
p570
sI568
Vblind
p571
sI569
Vembarrassed
p572
sI570
Venjoying
p573
sI571
Vfeeling
p574
sI572
Vbrazil
p575
sI573
Vcanada
p576
sI574
Vturkey
p577
sI575
Vgetting
p578
sI576
Vhot
p579
sI577
Vwin
p580
sI578
Vportugal
p581
sI579
Vleft
p582
sI580
Vhanded
p583
sI581
Vnearsighted
p584
sI582
Vnever
p585
sI583
Vnew
p586
sI584
Vtown
p587
sI585
Vcrook
p588
sI586
Vwoman
p589
sI587
Vfinicky
p590
sI588
Vunarmed
p591
sI589
Vlist
p592
sI590
Vroof
p593
sI591
Vvacation
p594
sI592
Vof
p595
sI593
Vpersevering
p596
sI594
Vreplaceable
p597
sI595
Valive
p598
sI596
Vone
p599
sI597
Vfour
p600
sI598
Vtied
p601
sI599
Vwatching
p602
sI600
Vbeauty
p603
sI601
Vrunner
p604
sI602
Vsinger
p605
sI603
Vdiscreet
p606
sI604
Vgraceful
p607
sI605
Vpowerful
p608
sI606
Vstubborn
p609
sI607
Vpicky
p610
sI608
Vslapped
p611
sI609
Vsounded
p612
sI610
Vstabbed
p613
sI611
Vcaucasian
p614
sI612
Vassertive
p615
sI613
Vsister
p616
sI614
Vseventeen
p617
sI615
Vmelons
p618
sI616
Vpilots
p619
sI617
Vrussian
p620
sI618
Vawesome
p621
sI619
Venemies
p622
sI620
Vinterns
p623
sI621
Vwith
p624
sI622
Vsons
p625
sI623
Varen
p626
sI624
Vcanadians
p627
sI625
Vboth
p628
sI626
Vdesperate
p629
sI627
Vdifferent
p630
sI628
Vgardeners
p631
sI629
Vimpatient
p632
sI630
Vintrigued
p633
sI631
Vlistening
p634
sI632
Vnewlyweds
p635
sI633
Vobjective
p636
sI634
Voptimists
p637
sI635
Vprisoners
p638
sI636
Vseparated
p639
sI637
Vsurprised
p640
sI638
Vnaughty
p641
sI639
Vtallest
p642
sI640
Vracist
p643
sI641
Vsexist
p644
sI642
Vidiot
p645
sI643
Vbluffing
p646
sI644
Vblushing
p647
sI645
Vcharming
p648
sI646
Vcheating
p649
sI647
Vfearless
p650
sI648
Vgenerous
p651
sI649
Vpathetic
p652
sI650
Vweird
p653
sI651
Vwasteful
p654
sI652
Vexcused
p655
sI653
Vborrow
p656
sI654
Vdance
p657
sI655
Vsurfing
p658
sI656
Vrest
p659
sI657
Vaggressive
p660
sI658
Vcollege
p661
sI659
Voverweight
p662
sI660
Vpast
p663
sI661
Vunsociable
p664
sI662
Vdate
p665
sI663
Vbrave
p666
sI664
Vperfect
p667
sI665
Vfrenchman
p668
sI666
Vgrown
p669
sI667
Vhistorian
p670
sI668
Vlifeguard
p671
sI669
Vnonsmoker
p672
sI670
Vsenile
p673
sI671
Vgot
p674
sI672
Vflu
p675
sI673
Vclass
p676
sI674
Vintelligent
p677
sI675
Vopen
p678
sI676
Vminded
p679
sI677
Vstark
p680
sI678
Vnaked
p681
sI679
Vsuch
p682
sI680
Vunconscious
p683
sI681
Vstingy
p684
sI682
Vforeigner
p685
sI683
Vmasochist
p686
sI684
Vprofessor
p687
sI685
Vcooking
p688
sI686
Vdumbfounded
p689
sI687
Vrice
p690
sI688
Vnorway
p691
sI689
Vfrying
p692
sI690
Vfish
p693
sI691
Vwitch
p694
sI692
Vtruly
p695
sI693
Vtrusted
p696
sI694
Vcarry
p697
sI695
Vexplain
p698
sI696
Vname
p699
sI697
Vnames
p700
sI698
Vdie
p701
sI699
Vmeat
p702
sI700
Vhate
p703
sI701
Vquit
p704
sI702
Vreach
p705
sI703
Vyet
p706
sI704
Vremember
p707
sI705
Vsave
p708
sI706
Vtell
p709
sI707
Vcannot
p710
sI708
Vwhistle
p711
sI709
Vcould
p712
sI710
Vspeak
p713
sI711
Vfrustrated
p714
sI712
Vhumiliated
p715
sI713
Vvictorious
p716
sI714
Vwashed
p717
sI715
Vfeet
p718
sI716
Vknown
p719
sI717
Vyears
p720
sI718
Vmother
p721
sI719
Vus
p722
sI720
Vcitizen
p723
sI721
Vgroggy
p724
sI722
Vjournalist
p725
sI723
Vriser
p726
sI724
Vshutterbug
p727
sI725
Vtranslator
p728
sI726
Valready
p729
sI727
Vambidextrous
p730
sI728
Vmarine
p731
sI729
Vbeing
p732
sI730
Vmath
p733
sI731
Vdisappointed
p734
sI732
Vdissatisfied
p735
sI733
Vlunch
p736
sI734
Vexaggerating
p737
sI735
Vfreaking
p738
sI736
Vtonight
p739
sI737
Vamerica
p740
sI738
Vcroatia
p741
sI739
Vengland
p742
sI740
Vhigh
p743
sI741
Vglad
p744
sI742
Vhomeschooled
p745
sI743
Vhousesitting
p746
sI744
Vattic
p747
sI745
Vhouse
p748
sI746
Vdebt
p749
sI747
Vinviting
p750
sI748
Vlooking
p751
sI749
Vshocked
p752
sI750
Vkilling
p753
sI751
Vtime
p754
sI752
Vcreative
p755
sI753
Vlike
p756
sI754
Vsuicidal
p757
sI755
Vmoney
p758
sI756
Voverreacting
p759
sI757
Vproud
p760
sI758
Vunprejudiced
p761
sI759
Vpopular
p762
sI760
Vfbi
p763
sI761
Vpartner
p764
sI762
Vpianist
p765
sI763
Vobstinate
p766
sI764
Vsaid
p767
sI765
Vgoodbye
p768
sI766
Vsadly
p769
sI767
Vsmokes
p770
sI768
Vlot
p771
sI769
Vstared
p772
sI770
Vstartled
p773
sI771
Vby
p774
sI772
Vstudies
p775
sI773
Vhard
p776
sI774
Vknockout
p777
sI775
Vsingers
p778
sI776
Vadorable
p779
sI777
Vchildren
p780
sI778
Vdrenched
p781
sI779
Vharmless
p782
sI780
Vtraitors
p783
sI781
Vsoulmates
p784
sI782
Vclassmates
p785
sI783
Veast
p786
sI784
Vhistorians
p787
sI785
Vneeded
p788
sI786
Vour
p789
sI787
Vsoul
p790
sI788
Vmates
p791
sI789
Vsurrounded
p792
sI790
Vtaking
p793
sI791
Vhopeless
p794
sI792
Vproblem
p795
sI793
Vambitious
p796
sI794
Vconceited
p797
sI795
Vnegligent
p798
sI796
Vobnoxious
p799
sI797
Vpowerless
p800
sI798
Vskinny
p801
sI799
Vagain
p802
sI800
Vhave
p803
sI801
Vbite
p804
sI802
Vdramatist
p805
sI803
Vgentleman
p806
sI804
Vscientist
p807
sI805
Vdesk
p808
sI806
Vbeyond
p809
sI807
Vhope
p810
sI808
Vfrance
p811
sI809
Vincompetent
p812
sI810
Vinfluential
p813
sI811
Vteam
p814
sI812
Vtrustworthy
p815
sI813
Vtimer
p816
sI814
Vundergrad
p817
sI815
Vdeep
p818
sI816
Vgeorgia
p819
sI817
Vwater
p820
sI818
Vjoint
p821
sI819
Varrived
p822
sI820
Vmember
p823
sI821
Vraking
p824
sI822
Vquick
p825
sI823
Vsound
p826
sI824
Vswimming
p827
sI825
Vtrusting
p828
sI826
Vperson
p829
sI827
Vmixed
p830
sI828
Vbaking
p831
sI829
Vbread
p832
sI830
Vfruit
p833
sI831
Vecuador
p834
sI832
Vsame
p835
sI833
Vpleased
p836
sI834
Vcar
p837
sI835
Vhardly
p838
sI836
Vplay
p839
sI837
Vchopin
p840
sI838
Vsoccer
p841
sI839
Vtennis
p842
sI840
Vride
p843
sI841
Vmarry
p844
sI842
Vplace
p845
sI843
Vpray
p846
sI844
Vanswer
p847
sI845
Vrefuse
p848
sI846
Voutsider
p849
sI847
Vdiscouraged
p850
sI848
Vhalf
p851
sI849
Vmugged
p852
sI850
Vbehind
p853
sI851
Vday
p854
sI852
Voverwhelmed
p855
sI853
Vhands
p856
sI854
Vflirting
p857
sI855
Vhad
p858
sI856
Vgrandfather
p859
sI857
Vlittle
p860
sI858
Vnormal
p861
sI859
Vgirl
p862
sI860
Vtotal
p863
sI861
Vwreck
p864
sI862
Vas
p865
sI863
Vsports
p866
sI864
Vconscientious
p867
sI865
Vdrinking
p868
sI866
Vmilk
p869
sI867
Vflabbergasted
p870
sI868
Vcity
p871
sI869
Vagree
p872
sI870
Vfishing
p873
sI871
Vjump
p874
sI872
Vhoping
p875
sI873
Vmood
p876
sI874
Vfarmer
p877
sI875
Vguessing
p878
sI876
Vweight
p879
sI877
Vcoffee
p880
sI878
Vmonster
p881
sI879
Vsoldier
p882
sI880
Vforgetful
p883
sI881
Vgiving
p884
sI882
Venemy
p885
sI883
Vdoll
p886
sI884
Vmaid
p887
sI885
Vfashioned
p888
sI886
Vcloud
p889
sI887
Vnine
p890
sI888
Vbreath
p891
sI889
Vsore
p892
sI890
Vbath
p893
sI891
Vbook
p894
sI892
Vusing
p895
sI893
Vtwitter
p896
sI894
Vdiscrete
p897
sI895
Vreserved
p898
sI896
Vclient
p899
sI897
Vroommate
p900
sI898
Vattractive
p901
sI899
Vdear
p902
sI900
Vsells
p903
sI901
Vflowers
p904
sI902
Vspeaks
p905
sI903
Vloudly
p906
sI904
Vspoke
p907
sI905
Vrapidly
p908
sI906
Vpoint
p909
sI907
Vhyperactive
p910
sI908
Vdaughter
p911
sI909
Vrather
p912
sI910
Vcars
p913
sI911
Vtwins
p914
sI912
Vcannibals
p915
sI913
Vexpensive
p916
sI914
Vmurderers
p917
sI915
Vwonderful
p918
sI916
Vamused
p919
sI917
Vwho
p920
sI918
Vrelated
p921
sI919
Vadults
p922
sI920
Vcelebrating
p923
sI921
Vcooperating
p924
sI922
Vdefenseless
p925
sI923
Vexperienced
p926
sI924
Vmourning
p927
sI925
Vjournalists
p928
sI926
Vkillers
p929
sI927
Vwine
p930
sI928
Vworkaholics
p931
sI929
Vbookworm
p932
sI930
Vdisgusting
p933
sI931
Vhurting
p934
sI932
Vincredible
p935
sI933
Vkid
p936
sI934
Vguests
p937
sI935
Vreasonable
p938
sI936
Vsafer
p939
sI937
Vscaring
p940
sI938
Vsuccessful
p941
sI939
Vpig
p942
sI940
Vtelling
p943
sI941
Vunreliable
p944
sI942
Vtimid
p945
sI943
Vthose
p946
sI944
Vcall
p947
sI945
Vpillow
p948
sI946
Vrent
p949
sI947
Vrackets
p950
sI948
Vtake
p951
sI949
Vpen
p952
sI950
Vdriver
p953
sI951
Vbus
p954
sI952
Vclever
p955
sI953
Vmere
p956
sI954
Vwar
p957
sI955
Vhorse
p958
sI956
Vclassmate
p959
sI957
Vcolleague
p960
sI958
Vsmoker
p961
sI959
Vplaying
p962
sI960
Vgolf
p963
sI961
Vsharp
p964
sI962
Vwitted
p965
sI963
Vheartless
p966
sI964
Vcousin
p967
sI965
Vcreationist
p968
sI966
Vfilthy
p969
sI967
Vghostwriter
p970
sI968
Vpale
p971
sI969
Vteetotaller
p972
sI970
Venglishman
p973
sI971
Vbird
p974
sI972
Vcloser
p975
sI973
Vearth
p976
sI974
Vcards
p977
sI975
Vand
p978
sI976
Vself
p979
sI977
Vemployed
p980
sI978
Vslim
p981
sI979
Vflexible
p982
sI980
Vstudious
p983
sI981
Vtalented
p984
sI982
Vwearing
p985
sI983
Vhat
p986
sI984
Vboiling
p987
sI985
Vdoubt
p988
sI986
Vgrilling
p989
sI987
Vprobably
p990
sI988
Vsix
p991
sI989
Vfor
p992
sI990
Vconfirm
p993
sI991
Vmyself
p994
sI992
Vallow
p995
sI993
Vbelieve
p996
sI994
Vthem
p997
sI995
Vbuy
p998
sI996
Vcontrol
p999
sI997
Vdiscuss
p1000
sI998
Vdrink
p1001
sI999
Vexclude
p1002
sI1000
Vfollow
p1003
sI1001
Vforget
p1004
sI1002
Vimagine
p1005
sI1003
Vlet
p1006
sI1004
Vlie
p1007
sI1005
Vpiano
p1008
sI1006
Vkids
p1009
sI1007
Vnothing
p1010
sI1008
Vmake
p1011
sI1009
Vasked
p1012
sI1010
Vparty
p1013
sI1011
Vonce
p1014
sI1012
Vblue
p1015
sI1013
Vforced
p1016
sI1014
Vstiff
p1017
sI1015
Vwere
p1018
sI1016
Vmet
p1019
sI1017
Vguardian
p1020
sI1018
Vdweller
p1021
sI1019
Vlearner
p1022
sI1020
Vguesser
p1023
sI1021
Vlousy
p1024
sI1022
Vphotographer
p1025
sI1023
Vslow
p1026
sI1024
Vtruck
p1027
sI1025
Vdogs
p1028
sI1026
Valso
p1029
sI1027
Vlibrary
p1030
sI1028
Vbleeding
p1031
sI1029
Vbadly
p1032
sI1030
Vjuly
p1033
sI1031
Vcounting
p1034
sI1032
Vsunday
p1035
sI1033
Vaustralia
p1036
sI1034
Vsingapore
p1037
sI1035
Vdowntown
p1038
sI1036
Vstart
p1039
sI1037
Vskiing
p1040
sI1038
Vblast
p1041
sI1039
Vholding
p1042
sI1040
Vcharge
p1043
sI1041
Vbathtub
p1044
sI1042
Vbeginning
p1045
sI1043
Vlearning
p1046
sI1044
Vczech
p1047
sI1045
Vmovie
p1048
sI1046
Vmissing
p1049
sI1047
Vsock
p1050
sI1048
Vcriminal
p1051
sI1049
Vmagician
p1052
sI1050
Vdenying
p1053
sI1051
Vaway
p1054
sI1052
Vslave
p1055
sI1053
Volder
p1056
sI1054
Vthan
p1057
sI1055
Vbalcony
p1058
sI1056
Vshock
p1059
sI1057
Vbegin
p1060
sI1058
Vselling
p1061
sI1059
Vterribly
p1062
sI1060
Vtwice
p1063
sI1061
Vfortunate
p1064
sI1062
Vwriting
p1065
sI1063
Vkissing
p1066
sI1064
Vtwenty
p1067
sI1065
Vpigeon
p1068
sI1066
Vtoed
p1069
sI1067
Vteaching
p1070
sI1068
Vbright
p1071
sI1069
Vsat
p1072
sI1070
Vnext
p1073
sI1071
Vshook
p1074
sI1072
Vhead
p1075
sI1073
Vhappily
p1076
sI1074
Vteaser
p1077
sI1075
Valcoholic
p1078
sI1076
Vmeeting
p1079
sI1077
Vgodmother
p1080
sI1078
Vthree
p1081
sI1079
Vwrestlers
p1082
sI1080
Vcarnations
p1083
sI1081
Veverywhere
p1084
sI1082
Vpart
p1085
sI1083
Vtough
p1086
sI1084
Vguys
p1087
sI1085
Vaustralians
p1088
sI1086
Vconservative
p1089
sI1087
Vcontributing
p1090
sI1088
Vhoneymooning
p1091
sI1089
Vignoring
p1092
sI1090
Vsoldiers
p1093
sI1091
Vsugar
p1094
sI1092
Vjacksons
p1095
sI1093
Vunder
p1096
sI1094
Vattack
p1097
sI1095
Vwasting
p1098
sI1096
Vcia
p1099
sI1097
Vimpossible
p1100
sI1098
Voath
p1101
sI1099
Vhypocrite
p1102
sI1100
Vcowards
p1103
sI1101
Vracists
p1104
sI1102
Vavoiding
p1105
sI1103
Vfascinating
p1106
sI1104
Vprincess
p1107
sI1105
Vdressed
p1108
sI1106
Vromantic
p1109
sI1107
Vgreen
p1110
sI1108
Vdreamer
p1111
sI1109
Vexperts
p1112
sI1110
Vcheck
p1113
sI1111
Vblanket
p1114
sI1112
Vmoment
p1115
sI1113
Vdealer
p1116
sI1114
Vlearned
p1117
sI1115
Vfellow
p1118
sI1116
Vhater
p1119
sI1117
Vsize
p1120
sI1118
Voffice
p1121
sI1119
Vpenance
p1122
sI1120
Vfar
p1123
sI1121
Vheart
p1124
sI1122
Voverconfident
p1125
sI1123
Vmusic
p1126
sI1124
Vsensitive
p1127
sI1125
Vhandsome
p1128
sI1126
Vwashing
p1129
sI1127
Vcardiologist
p1130
sI1128
Vchain
p1131
sI1129
Vbloomer
p1132
sI1130
Vrusty
p1133
sI1131
Vloose
p1134
sI1132
Vcannon
p1135
sI1133
Vscriptwriter
p1136
sI1134
Vcats
p1137
sI1135
Vopera
p1138
sI1136
Vlover
p1139
sI1137
Vheadache
p1140
sI1138
Vhomeward
p1141
sI1139
Vbound
p1142
sI1140
Vkitchen
p1143
sI1141
Vsentry
p1144
sI1142
Vtetris
p1145
sI1143
Vcrime
p1146
sI1144
Vswimmer
p1147
sI1145
Velectrician
p1148
sI1146
Vdeeply
p1149
sI1147
Vdigging
p1150
sI1148
Vdrawing
p1151
sI1149
Vnoodles
p1152
sI1150
Vstudy
p1153
sI1151
Vindia
p1154
sI1152
Vpeeling
p1155
sI1153
Vapples
p1156
sI1154
Vpicking
p1157
sI1155
Vguitar
p1158
sI1156
Vchosen
p1159
sI1157
Vdangerous
p1160
sI1158
Vsms
p1161
sI1159
Vwithout
p1162
sI1160
Vgive
p1163
sI1161
Vhide
p1164
sI1162
Vanywhere
p1165
sI1163
Vsecret
p1166
sI1164
Vpeel
p1167
sI1165
Vapple
p1168
sI1166
Vsmell
p1169
sI1167
Vcookies
p1170
sI1168
Vsurvive
p1171
sI1169
Vteach
p1172
sI1170
Vaccept
p1173
sI1171
Vchange
p1174
sI1172
Vcontact
p1175
sI1173
Vany
p1176
sI1174
Vanything
p1177
sI1175
Vchicken
p1178
sI1176
Vpeanuts
p1179
sI1177
Vfall
p1180
sI1178
Vfind
p1181
sI1179
Vbag
p1182
sI1180
Vkey
p1183
sI1181
Vforgive
p1184
sI1182
Vword
p1185
sI1183
Vanyone
p1186
sI1184
Videntify
p1187
sI1185
Vignore
p1188
sI1186
Vleg
p1189
sI1187
Vexactly
p1190
sI1188
Vthing
p1191
sI1189
Vhelped
p1192
sI1190
Varrested
p1193
sI1191
Vosaka
p1194
sI1192
Vgreat
p1195
sI1193
Vcake
p1196
sI1194
Vshirt
p1197
sI1195
Vthen
p1198
sI1196
Vunderstood
p1199
sI1197
Vfaster
p1200
sI1198
Vabroad
p1201
sI1199
Vlisten
p1202
sI1200
Vassistant
p1203
sI1201
Vbodyguard
p1204
sI1202
Vlistener
p1205
sI1203
Vlight
p1206
sI1204
Vsleeper
p1207
sI1205
Vtattoo
p1208
sI1206
Vplayer
p1209
sI1207
Vabsolutely
p1210
sI1208
Vdeath
p1211
sI1209
Vwit
p1212
sI1210
Vend
p1213
sI1211
Vservice
p1214
sI1212
Vpicked
p1215
sI1213
Vsarcastic
p1216
sI1214
Vbigger
p1217
sI1215
Vthirst
p1218
sI1216
Vextremely
p1219
sI1217
Vthank
p1220
sI1218
Vfuture
p1221
sI1219
Vsaw
p1222
sI1220
Vchurch
p1223
sI1221
Vsinging
p1224
sI1222
Vadvice
p1225
sI1223
Vapartment
p1226
sI1224
Vindebted
p1227
sI1225
Vbasque
p1228
sI1226
Vliving
p1229
sI1227
Vdream
p1230
sI1228
Vprogress
p1231
sI1229
Vlonger
p1232
sI1230
Vcelebrity
p1233
sI1231
Veither
p1234
sI1232
Vcomplaining
p1235
sI1233
Vinterfering
p1236
sI1234
Vintimidated
p1237
sI1235
Vmanager
p1238
sI1236
Vperfectly
p1239
sI1237
Vpractising
p1240
sI1238
Vjudo
p1241
sI1239
Vprepared
p1242
sI1240
Vlegs
p1243
sI1241
Vrooting
p1244
sI1242
Vslightly
p1245
sI1243
Vforgot
p1246
sI1244
Vundecided
p1247
sI1245
Vthinking
p1248
sI1246
Vused
p1249
sI1247
Vwaiting
p1250
sI1248
Vusually
p1251
sI1249
Vconscience
p1252
sI1250
Vchatterbox
p1253
sI1251
Vfond
p1254
sI1252
Vnatured
p1255
sI1253
Vgrowing
p1256
sI1254
Vlooked
p1257
sI1255
Vloved
p1258
sI1256
Vseldom
p1259
sI1257
Vgoes
p1260
sI1258
Vshaved
p1261
sI1259
Vshaves
p1262
sI1260
Vmuch
p1263
sI1261
Vbuys
p1264
sI1262
Vloves
p1265
sI1263
Vstopped
p1266
sI1264
Vsmoking
p1267
sI1265
Vmodern
p1268
sI1266
Vbeen
p1269
sI1267
Vpoisoned
p1270
sI1268
Vpenniless
p1271
sI1269
Vchristians
p1272
sI1270
Vsisters
p1273
sI1271
Vfarmers
p1274
sI1272
Vinseparable
p1275
sI1273
Vmocking
p1276
sI1274
Vvegetarians
p1277
sI1275
Vsimilar
p1278
sI1276
Vparents
p1279
sI1277
Vfinally
p1280
sI1278
Vhunting
p1281
sI1279
Vgarden
p1282
sI1280
Vstrangers
p1283
sI1281
Vschedule
p1284
sI1282
Vbutter
p1285
sI1283
Vunimaginative
p1286
sI1284
Vworkaholic
p1287
sI1285
Vcantankerous
p1288
sI1286
Vconfusing
p1289
sI1287
Virresistible
p1290
sI1288
Vsweetest
p1291
sI1289
Vunbelievable
p1292
sI1290
Varrest
p1293
sI1291
Vhelpful
p1294
sI1292
Vammo
p1295
sI1293
Vquestion
p1296
sI1294
Vroom
p1297
sI1295
Vextend
p1298
sI1296
Vhug
p1299
sI1297
Vfolks
p1300
sI1298
Vhold
p1301
sI1299
Vhand
p1302
sI1300
Vmessage
p1303
sI1301
Vturn
p1304
sI1302
Vphone
p1305
sI1303
Vathlete
p1306
sI1304
Vspeaker
p1307
sI1305
Vharsh
p1308
sI1306
Vcritic
p1309
sI1307
Vcookie
p1310
sI1308
Vsixty
p1311
sI1309
Vfive
p1312
sI1310
Vcare
p1313
sI1311
Venergy
p1314
sI1312
Vdiving
p1315
sI1313
Vplease
p1316
sI1314
Vmaster
p1317
sI1315
Vusual
p1318
sI1316
Vhealth
p1319
sI1317
Vlikely
p1320
sI1318
Vsecond
p1321
sI1319
Vnone
p1322
sI1320
Vsmall
p1323
sI1321
Vdepressed
p1324
sI1322
Vgloves
p1325
sI1323
Vcase
p1326
sI1324
Vreal
p1327
sI1325
Vspaniard
p1328
sI1326
Vscowling
p1329
sI1327
Vwhite
p1330
sI1328
Vcat
p1331
sI1329
Vlung
p1332
sI1330
Vcancer
p1333
sI1331
Vgreedy
p1334
sI1332
Vgrave
p1335
sI1333
Vhospital
p1336
sI1334
Vamateur
p1337
sI1335
Veveryone
p1338
sI1336
Vmissed
p1339
sI1337
Vboat
p1340
sI1338
Voffered
p1341
sI1339
Vshower
p1342
sI1340
Vtreatment
p1343
sI1341
Vprotective
p1344
sI1342
Vyounger
p1345
sI1343
Vstranger
p1346
sI1344
Vbears
p1347
sI1345
Ventrepreneur
p1348
sI1346
Vbuilding
p1349
sI1347
Vwall
p1350
sI1348
Vdriving
p1351
sI1349
Vbanana
p1352
sI1350
Vfan
p1353
sI1351
Vfootball
p1354
sI1352
Vhistory
p1355
sI1353
Vlaughing
p1356
sI1354
Vmilking
p1357
sI1355
Vgoat
p1358
sI1356
Vmopping
p1359
sI1357
Vstory
p1360
sI1358
Vweighing
p1361
sI1359
Vbarely
p1362
sI1360
Vsomething
p1363
sI1361
Vlive
p1364
sI1362
Vmind
p1365
sI1363
Vtrain
p1366
sI1364
Vunderstand
p1367
sI1365
Vconvince
p1368
sI1366
Vface
p1369
sI1367
Vtoes
p1370
sI1368
Vkeys
p1371
sI1369
Vpromoted
p1372
sI1370
Vinto
p1373
sI1371
Vforever
p1374
sI1372
Vmeet
p1375
sI1373
Vgerman
p1376
sI1374
Vwrite
p1377
sI1375
Vless
p1378
sI1376
Vrussia
p1379
sI1377
Vyesterday
p1380
sI1378
Vdisgusted
p1381
sI1379
Vstung
p1382
sI1380
Vbee
p1383
sI1381
Vstepfather
p1384
sI1382
Vnatural
p1385
sI1383
Vblonde
p1386
sI1384
Vpolice
p1387
sI1385
Vprivate
p1388
sI1386
Vbill
p1389
sI1387
Vallergic
p1390
sI1388
Vcorn
p1391
sI1389
Vdust
p1392
sI1390
Veighth
p1393
sI1391
Vgrader
p1394
sI1392
Vdisposal
p1395
sI1393
Vbuying
p1396
sI1394
Vcleaning
p1397
sI1395
Vclosing
p1398
sI1396
Vdoor
p1399
sI1397
Vcompletely
p1400
sI1398
Vdepending
p1401
sI1399
Vfed
p1402
sI1400
Vstressed
p1403
sI1401
Vfixing
p1404
sI1402
Vhomesick
p1405
sI1403
Vapprove
p1406
sI1404
Vmade
p1407
sI1405
Vnoticed
p1408
sI1406
Vhappier
p1409
sI1407
Vever
p1410
sI1408
Vheavier
p1411
sI1409
Vhitting
p1412
sI1410
Vroad
p1413
sI1411
Vincredibly
p1414
sI1412
Vfood
p1415
sI1413
Vanyway
p1416
sI1414
Vplanning
p1417
sI1415
Vpressing
p1418
sI1416
Vcharges
p1419
sI1417
Vpulling
p1420
sI1418
Vplug
p1421
sI1419
Vbeside
p1422
sI1420
Vsmarter
p1423
sI1421
Vll
p1424
sI1422
Vtotally
p1425
sI1423
Vtwelve
p1426
sI1424
Vunnecessary
p1427
sI1425
Vletter
p1428
sI1426
Vdancer
p1429
sI1427
Vskate
p1430
sI1428
Vdinner
p1431
sI1429
Vmessenger
p1432
sI1430
Vtraveling
p1433
sI1431
Vsang
p1434
sI1432
Vvegetables
p1435
sI1433
Vserved
p1436
sI1434
Vslammed
p1437
sI1435
Vsold
p1438
sI1436
Vstole
p1439
sI1437
Vclothes
p1440
sI1438
Vbelly
p1441
sI1439
Vdouble
p1442
sI1440
Vjointed
p1443
sI1441
Vtwo
p1444
sI1442
Vooita
p1445
sI1443
Vtrip
p1446
sI1444
Vbooks
p1447
sI1445
Vemotional
p1448
sI1446
Vreligious
p1449
sI1447
Vtights
p1450
sI1448
Vshould
p1451
sI1449
Vcut
p1452
sI1450
Vhair
p1453
sI1451
Vpeople
p1454
sI1452
Vtourists
p1455
sI1453
Vfiring
p1456
sI1454
Vaisle
p1457
sI1455
Vthreat
p1458
sI1456
Vtears
p1459
sI1457
Vjoy
p1460
sI1458
Veleven
p1461
sI1459
Vforest
p1462
sI1460
Vamericans
p1463
sI1461
Vattacked
p1464
sI1462
Vnamed
p1465
sI1463
Vsloppy
p1466
sI1464
Vfight
p1467
sI1465
Vthird
p1468
sI1466
Vterrorists
p1469
sI1467
Vplanting
p1470
sI1468
Vseeds
p1471
sI1469
Vprotecting
p1472
sI1470
Vtogether
p1473
sI1471
Vowners
p1474
sI1472
Vvulnerable
p1475
sI1473
Vadult
p1476
sI1474
Vwhat
p1477
sI1475
Varound
p1478
sI1476
Vamong
p1479
sI1477
Vevasive
p1480
sI1478
Vparked
p1481
sI1479
Vextraordinary
p1482
sI1480
Vinconsiderate
p1483
sI1481
Vgirlfriend
p1484
sI1482
Vgifted
p1485
sI1483
Vmysterious
p1486
sI1484
Vshaking
p1487
sI1485
Vweirdo
p1488
sI1486
Vtempting
p1489
sI1487
Vfate
p1490
sI1488
Vscapegoat
p1491
sI1489
Vuninteresting
p1492
sI1490
Vuntrustworthy
p1493
sI1491
Varrogant
p1494
sI1492
Vfavor
p1495
sI1493
Vorange
p1496
sI1494
Vwindow
p1497
sI1495
Vsong
p1498
sI1496
Vpencil
p1499
sI1497
Vmine
p1500
sI1498
Vbirth
p1501
sI1499
Vheroin
p1502
sI1500
Vaction
p1503
sI1501
Vreason
p1504
sI1502
Vwealth
p1505
sI1503
Vperfectionist
p1506
sI1504
Vshooter
p1507
sI1505
Vabove
p1508
sI1506
Vsuspicion
p1509
sI1507
Vcheerful
p1510
sI1508
Varmy
p1511
sI1509
Veager
p1512
sI1510
Vbeaver
p1513
sI1511
Vblinded
p1514
sI1512
Vtheft
p1515
sI1513
Vordinary
p1516
sI1514
Vphysician
p1517
sI1515
Vshow
p1518
sI1516
Vsuccess
p1519
sI1517
Vsucceed
p1520
sI1518
Varabic
p1521
sI1519
Vunable
p1522
sI1520
Vglasses
p1523
sI1521
Vstrange
p1524
sI1522
Vgossiping
p1525
sI1523
Voceanographer
p1526
sI1524
Vbusiness
p1527
sI1525
Vblacklisted
p1528
sI1526
Vbefore
p1529
sI1527
Vhimself
p1530
sI1528
Vfound
p1531
sI1529
Vlooks
p1532
sI1530
Vgroup
p1533
sI1531
Vboyfriend
p1534
sI1532
Vlast
p1535
sI1533
Vwoods
p1536
sI1534
Vrelaxing
p1537
sI1535
Vstronger
p1538
sI1536
Vworker
p1539
sI1537
Vblinking
p1540
sI1538
Veyes
p1541
sI1539
Vbrushing
p1542
sI1540
Vdishes
p1543
sI1541
Vnauseous
p1544
sI1542
Vfolding
p1545
sI1543
Vdress
p1546
sI1544
Vharvesting
p1547
sI1545
Vwheat
p1548
sI1546
Vheating
p1549
sI1547
Vclassroom
p1550
sI1548
Vironing
p1551
sI1549
Vnear
p1552
sI1550
Vstation
p1553
sI1551
Vmatch
p1554
sI1552
Vshorter
p1555
sI1553
Vlater
p1556
sI1554
Vweek
p1557
sI1555
Vocean
p1558
sI1556
Vtestify
p1559
sI1557
Vwon
p1560
sI1558
Vtomorrow
p1561
sI1559
Vanymore
p1562
sI1560
Valcohol
p1563
sI1561
Vchocolate
p1564
sI1562
Vshoes
p1565
sI1563
Vpay
p1566
sI1564
Vsell
p1567
sI1565
Vlong
p1568
sI1566
Vsteal
p1569
sI1567
Vheat
p1570
sI1568
Vgirls
p1571
sI1569
Vve
p1572
sI1570
Vaching
p1573
sI1571
Vyear
p1574
sI1572
Voctober
p1575
sI1573
Vcertainly
p1576
sI1574
Vfalsely
p1577
sI1575
Vaccused
p1578
sI1576
Vfilled
p1579
sI1577
Vperplexed
p1580
sI1578
Voverly
p1581
sI1579
Vseen
p1582
sI1580
Vjob
p1583
sI1581
Vhadn
p1584
sI1582
Vcried
p1585
sI1583
Vstone
p1586
sI1584
Vwould
p1587
sI1585
Vgrandmother
p1588
sI1586
Vstepbrother
p1589
sI1587
Vcountry
p1590
sI1588
Vterrible
p1591
sI1589
Vheights
p1592
sI1590
Vrestaurant
p1593
sI1591
Vblackmailed
p1594
sI1592
Vdreading
p1595
sI1593
Vexam
p1596
sI1594
Veasily
p1597
sI1595
Vinfluenced
p1598
sI1596
Ventirely
p1599
sI1597
Vjapan
p1600
sI1598
Vhas
p1601
sI1599
Vmiss
p1602
sI1600
Vbank
p1603
sI1601
Vapologize
p1604
sI1602
Vbitter
p1605
sI1603
Vlose
p1606
sI1604
Vshape
p1607
sI1605
Vuncomfortable
p1608
sI1606
Vathletic
p1609
sI1607
Vsocks
p1610
sI1608
Vfixed
p1611
sI1609
Vincome
p1612
sI1610
Vbreak
p1613
sI1611
Vside
p1614
sI1612
Vhospitals
p1615
sI1613
Vwill
p1616
sI1614
Vswamped
p1617
sI1615
Vchess
p1618
sI1616
Vcry
p1619
sI1617
Vnoise
p1620
sI1618
Vbroad
p1621
sI1619
Vdiscontented
p1622
sI1620
Vnews
p1623
sI1621
Vaged
p1624
sI1622
Vsmiling
p1625
sI1623
Vkyushu
p1626
sI1624
Vevidently
p1627
sI1625
Vsewing
p1628
sI1626
Vnature
p1629
sI1627
Vscreamed
p1630
sI1628
Vtune
p1631
sI1629
Vportuguese
p1632
sI1630
Vstayed
p1633
sI1631
Vhotel
p1634
sI1632
Vrestroom
p1635
sI1633
Vgaining
p1636
sI1634
Vcriminals
p1637
sI1635
Vdisturbing
p1638
sI1636
Vplayers
p1639
sI1637
Vpretending
p1640
sI1638
Vnearly
p1641
sI1639
Venough
p1642
sI1640
Vdaughters
p1643
sI1641
Vlogged
p1644
sI1642
Vseriously
p1645
sI1643
Vkisser
p1646
sI1644
Vparanoid
p1647
sI1645
Vbraver
p1648
sI1646
Vforgetting
p1649
sI1647
Vinvincible
p1650
sI1648
Vmistaken
p1651
sI1649
Vsmirking
p1652
sI1650
Vinflexible
p1653
sI1651
Vbut
p1654
sI1652
Vefficient
p1655
sI1653
Vobservant
p1656
sI1654
Vversatile
p1657
sI1655
Vpaper
p1658
sI1656
Vsomehow
p1659
sI1657
Vcurtain
p1660
sI1658
Vpark
p1661
sI1659
Vpick
p1662
sI1660
Vbeard
p1663
sI1661
Vcapable
p1664
sI1662
Vviolinist
p1665
sI1663
Veye
p1666
sI1664
Vjazz
p1667
sI1665
Vpractically
p1668
sI1666
Vodd
p1669
sI1667
Vriding
p1670
sI1668
Vbicycle
p1671
sI1669
Vfame
p1672
sI1670
Vbaseball
p1673
sI1671
Vdevout
p1674
sI1672
Vcatholic
p1675
sI1673
Vwilled
p1676
sI1674
Vacting
p1677
sI1675
Vdrugs
p1678
sI1676
Vsea
p1679
sI1677
Vasian
p1680
sI1678
Vhandstand
p1681
sI1679
Vhomework
p1682
sI1680
Videas
p1683
sI1681
Vthick
p1684
sI1682
Vburn
p1685
sI1683
Vleaning
p1686
sI1684
Vcane
p1687
sI1685
Vworthy
p1688
sI1686
Vobviously
p1689
sI1687
Vlaws
p1690
sI1688
Vstalling
p1691
sI1689
Vsweetheart
p1692
sI1690
Vthoroughly
p1693
sI1691
Vdiary
p1694
sI1692
Vaware
p1695
sI1693
Vfact
p1696
sI1694
Vteeth
p1697
sI1695
Vcalling
p1698
sI1696
Vdownloading
p1699
sI1697
Vgreatly
p1700
sI1698
Vlighting
p1701
sI1699
Vcigar
p1702
sI1700
Vmemorizing
p1703
sI1701
Vtext
p1704
sI1702
Vprettier
p1705
sI1703
Vsuspicious
p1706
sI1704
Vtidying
p1707
sI1705
Vvoice
p1708
sI1706
Vthings
p1709
sI1707
Vbear
p1710
sI1708
Vwallet
p1711
sI1709
Vknife
p1712
sI1710
Vthese
p1713
sI1711
Vfurther
p1714
sI1712
Vdetail
p1715
sI1713
Vsaturday
p1716
sI1714
Vjudge
p1717
sI1715
Vdistance
p1718
sI1716
Vput
p1719
sI1717
Vraw
p1720
sI1718
Vviolence
p1721
sI1719
Vthink
p1722
sI1720
Vstraight
p1723
sI1721
Vlift
p1724
sI1722
Vbox
p1725
sI1723
Vsome
p1726
sI1724
Vapprentice
p1727
sI1725
Vmountains
p1728
sI1726
Vdaydreaming
p1729
sI1727
Vteasing
p1730
sI1728
Vscolding
p1731
sI1729
Vsacked
p1732
sI1730
Vstuck
p1733
sI1731
Vtraffic
p1734
sI1732
Vthrown
p1735
sI1733
Vguard
p1736
sI1734
Vprince
p1737
sI1735
Vwouldn
p1738
sI1736
Vtaxi
p1739
sI1737
Vhuge
p1740
sI1738
Vdark
p1741
sI1739
Vallowing
p1742
sI1740
Vanxious
p1743
sI1741
Vapplying
p1744
sI1742
Vbody
p1745
sI1743
Vairport
p1746
sI1744
Vbecoming
p1747
sI1745
Vfascinated
p1748
sI1746
Vliked
p1749
sI1747
Vcame
p1750
sI1748
Vneed
p1751
sI1749
Vlots
p1752
sI1750
Vconstant
p1753
sI1751
Vclub
p1754
sI1752
Vlactose
p1755
sI1753
Vintolerant
p1756
sI1754
Vmoving
p1757
sI1755
Vyours
p1758
sI1756
Vhomeless
p1759
sI1757
Vdisputing
p1760
sI1758
Vevery
p1761
sI1759
Vwhen
p1762
sI1760
Vcalled
p1763
sI1761
Vantibiotics
p1764
sI1762
Vyoungest
p1765
sI1763
Vcommon
p1766
sI1764
Vsense
p1767
sI1765
Vsunglasses
p1768
sI1766
Vanimals
p1769
sI1767
Vbathroom
p1770
sI1768
Vsitting
p1771
sI1769
Vwiser
p1772
sI1770
Vwalked
p1773
sI1771
Vshowed
p1774
sI1772
Vsleeps
p1775
sI1773
Vsuddenly
p1776
sI1774
Vkissed
p1777
sI1775
Vindividualist
p1778
sI1776
Vkill
p1779
sI1777
Vrolling
p1780
sI1778
Vcoat
p1781
sI1779
Virritable
p1782
sI1780
Vchat
p1783
sI1781
Vdime
p1784
sI1782
Vdozen
p1785
sI1783
Vhole
p1786
sI1784
Vfacebook
p1787
sI1785
Vwits
p1788
sI1786
Vcareless
p1789
sI1787
Vbreakfast
p1790
sI1788
Valley
p1791
sI1789
Vhanging
p1792
sI1790
Vconfident
p1793
sI1791
Vhoneymoon
p1794
sI1792
Vstock
p1795
sI1793
Vpaid
p1796
sI1794
Vhour
p1797
sI1795
Vwilling
p1798
sI1796
Vlearn
p1799
sI1797
Vtroublemaker
p1800
sI1798
Vhearing
p1801
sI1799
Vblush
p1802
sI1800
Vpolite
p1803
sI1801
Vgorgeous
p1804
sI1802
Vpack
p1805
sI1803
Vrat
p1806
sI1804
Vperceptive
p1807
sI1805
Vahead
p1808
sI1806
Vbrush
p1809
sI1807
Vcatch
p1810
sI1808
Vtractor
p1811
sI1809
Vsuggestion
p1812
sI1810
Vpicture
p1813
sI1811
Vcomputer
p1814
sI1812
Vwear
p1815
sI1813
Vdependable
p1816
sI1814
Vmedical
p1817
sI1815
Vrage
p1818
sI1816
Vsuper
p1819
sI1817
Vequal
p1820
sI1818
Vtask
p1821
sI1819
Vadventure
p1822
sI1820
Vdeal
p1823
sI1821
Vloyal
p1824
sI1822
Vsofa
p1825
sI1823
Vrelation
p1826
sI1824
Vfault
p1827
sI1825
Vchemistry
p1828
sI1826
Vputting
p1829
sI1827
Vricher
p1830
sI1828
Vcheat
p1831
sI1829
Vcommunity
p1832
sI1830
Vleader
p1833
sI1831
Vskilled
p1834
sI1832
Vlinguist
p1835
sI1833
Vworld
p1836
sI1834
Vrifle
p1837
sI1835
Veverybody
p1838
sI1836
Vlow
p1839
sI1837
Vfluent
p1840
sI1838
Varithmetic
p1841
sI1839
Vcrush
p1842
sI1840
Vhopelessly
p1843
sI1841
Vfantastic
p1844
sI1842
Vfloor
p1845
sI1843
Vsubordinate
p1846
sI1844
Vsketching
p1847
sI1845
Vunderstanding
p1848
sI1846
Vrealistic
p1849
sI1847
Vsorrow
p1850
sI1848
Vfollowing
p1851
sI1849
Vimmune
p1852
sI1850
Vsmallpox
p1853
sI1851
Vkneading
p1854
sI1852
Vdough
p1855
sI1853
Vpainting
p1856
sI1854
Vgarage
p1857
sI1855
Vwalking
p1858
sI1856
Vclimb
p1859
sI1857
Vwiping
p1860
sI1858
Vshelves
p1861
sI1859
Varticle
p1862
sI1860
Vlook
p1863
sI1861
Vcode
p1864
sI1862
Vfigure
p1865
sI1863
Vforce
p1866
sI1864
Vlid
p1867
sI1865
Vhow
p1868
sI1866
Vhappen
p1869
sI1867
Vapart
p1870
sI1868
Vuntie
p1871
sI1869
Vknot
p1872
sI1870
Vpossibly
p1873
sI1871
Veverything
p1874
sI1872
Vago
p1875
sI1873
Vcaught
p1876
sI1874
Vdealt
p1877
sI1875
Vlaughed
p1878
sI1876
Vcrowd
p1879
sI1877
Vtold
p1880
sI1878
Vran
p1881
sI1879
Vescape
p1882
sI1880
Vearlier
p1883
sI1881
Vsecretary
p1884
sI1882
Vvolleyball
p1885
sI1883
Vdon
p1886
sI1884
Vknow
p1887
sI1885
Vlife
p1888
sI1886
Vrain
p1889
sI1887
Vcarrots
p1890
sI1888
Vamazed
p1891
sI1889
Vnerve
p1892
sI1890
Vloss
p1893
sI1891
Vwords
p1894
sI1892
Vhilton
p1895
sI1893
Vconcerned
p1896
sI1894
Vchores
p1897
sI1895
Vfaithful
p1898
sI1896
Vcoast
p1899
sI1897
Vwest
p1900
sI1898
Vfully
p1901
sI1899
Venjoyed
p1902
sI1900
Vstairs
p1903
sI1901
Vprotect
p1904
sI1902
Vsupport
p1905
sI1903
Vgrade
p1906
sI1904
Vsomeone
p1907
sI1905
Vheavy
p1908
sI1906
Vcriticizing
p1909
sI1907
Vsundays
p1910
sI1908
Vif
p1911
sI1909
Verrand
p1912
sI1910
Voffering
p1913
sI1911
Vtop
p1914
sI1912
Vsuggestions
p1915
sI1913
Vrepairing
p1916
sI1914
Vseeing
p1917
sI1915
Vexcuses
p1918
sI1916
Vboys
p1919
sI1917
Vdoubted
p1920
sI1918
Vwoke
p1921
sI1919
Vsupposed
p1922
sI1920
Vmeans
p1923
sI1921
Vmeant
p1924
sI1922
Vbackgammon
p1925
sI1923
Vvirtuous
p1926
sI1924
Veducated
p1927
sI1925
Vbathing
p1928
sI1926
Vblackmailing
p1929
sI1927
Vmost
p1930
sI1928
Vknitting
p1931
sI1929
Vscarf
p1932
sI1930
Vbrooch
p1933
sI1931
Vchair
p1934
sI1932
Vseemed
p1935
sI1933
Vuninterested
p1936
sI1934
Valbum
p1937
sI1935
Vmathematics
p1938
sI1936
Vpet
p1939
sI1937
Vunfit
p1940
sI1938
Vfill
p1941
sI1939
Vgathering
p1942
sI1940
Vshopping
p1943
sI1941
Vsalad
p1944
sI1942
Vsensible
p1945
sI1943
Vsufficient
p1946
sI1944
Vavailable
p1947
sI1945
Vtowing
p1948
sI1946
Vagreement
p1949
sI1947
Vinexperienced
p1950
sI1948
Vmall
p1951
sI1949
Vbarbecue
p1952
sI1950
Vsoon
p1953
sI1951
Vterms
p1954
sI1952
Vcustomer
p1955
sI1953
Vimagining
p1956
sI1954
Vcourse
p1957
sI1955
Vpessimist
p1958
sI1956
Vresourceful
p1959
sI1957
Vcancel
p1960
sI1958
Vticket
p1961
sI1959
Vchannel
p1962
sI1960
Vcount
p1963
sI1961
Vcredit
p1964
sI1962
Vcard
p1965
sI1963
Vmandolin
p1966
sI1964
Vcouch
p1967
sI1965
Vpictures
p1968
sI1966
Vtelephone
p1969
sI1967
Vchildhood
p1970
sI1968
Vcharacter
p1971
sI1969
Vfew
p1972
sI1970
Vtypical
p1973
sI1971
Vbatter
p1974
sI1972
Vtoward
p1975
sI1973
Vbeat
p1976
sI1974
Vtenth
p1977
sI1975
Vbench
p1978
sI1976
Vopening
p1979
sI1977
Vimmature
p1980
sI1978
Vhearted
p1981
sI1979
Vimportance
p1982
sI1980
Vsorcerer
p1983
sI1981
Vbanker
p1984
sI1982
Vafrican
p1985
sI1983
Vstate
p1986
sI1984
Vaboard
p1987
sI1985
Vship
p1988
sI1986
Vnovel
p1989
sI1987
Venergetic
p1990
sI1988
Vpolish
p1991
sI1989
Vacquainted
p1992
sI1990
Vchanging
p1993
sI1991
Vcontent
p1994
sI1992
Vafternoon
p1995
sI1993
Vsharpening
p1996
sI1994
Vsword
p1997
sI1995
Vsqueezing
p1998
sI1996
Vriver
p1999
sI1997
Vthrilled
p2000
sI1998
Vvisiting
p2001
sI1999
Vwindows
p2002
sI2000
Vwild
p2003
sI2001
Vbirds
p2004
sI2002
Vthoughts
p2005
sI2003
Vsolve
p2006
sI2004
Vplan
p2007
sI2005
Vwant
p2008
sI2006
Vstuff
p2009
sI2007
Vanother
p2010
sI2008
Vsuitcase
p2011
sI2009
Vkeyhole
p2012
sI2010
Vmovies
p2013
sI2011
Vfeelings
p2014
sI2012
Vbottle
p2015
sI2013
Vpromise
p2016
sI2014
Vreveal
p2017
sI2015
Vsource
p2018
sI2016
Vchances
p2019
sI2017
Vtill
p2020
sI2018
Vsummer
p2021
sI2019
Vkilled
p2022
sI2020
Vaccustomed
p2023
sI2021
Vtheater
p2024
sI2022
Vworry
p2025
sI2023
Vwinter
p2026
sI2024
Vwhole
p2027
sI2025
Vgiven
p2028
sI2026
Vjacket
p2029
sI2027
Vtrack
p2030
sI2028
Vviolin
p2031
sI2029
Vraised
p2032
sI2030
Vyokohama
p2033
sI2031
Vtaken
p2034
sI2032
Vadvantage
p2035
sI2033
Vushered
p2036
sI2034
Vseat
p2037
sI2035
Vwash
p2038
sI2036
Vmagic
p2039
sI2037
Vlived
p2040
sI2038
Vfriday
p2041
sI2039
Vsooner
p2042
sI2040
Vmary
p2043
sI2041
Vuniversity
p2044
sI2042
Vawaiting
p2045
sI2043
Vinspiration
p2046
sI2044
Vdelighted
p2047
sI2045
Vfeeding
p2048
sI2046
Vgoldfish
p2049
sI2047
Vthanks
p2050
sI2048
Vhit
p2051
sI2049
Vhay
p2052
sI2050
Vregret
p2053
sI2051
Vshut
p2054
sI2052
Vsupplies
p2055
sI2053
Vspirits
p2056
sI2054
Vwheezy
p2057
sI2055
Vaverage
p2058
sI2056
Vstarted
p2059
sI2057
Vbusier
p2060
sI2058
Vmorning
p2061
sI2059
Vviolent
p2062
sI2060
Vinspired
p2063
sI2061
Vsigning
p2064
sI2062
Veaster
p2065
sI2063
Veggs
p2066
sI2064
Vdid
p2067
sI2065
Vdidn
p2068
sI2066
Vwoozy
p2069
sI2067
Vthankful
p2070
sI2068
Vtoying
p2071
sI2069
Videa
p2072
sI2070
Vdays
p2073
sI2071
Vmindful
p2074
sI2072
Vworth
p2075
sI2073
Vherself
p2076
sI2074
Vterror
p2077
sI2075
Vset
p2078
sI2076
Vthailand
p2079
sI2077
Vphoto
p2080
sI2078
Vfell
p2081
sI2079
Vsilent
p2082
sI2080
Vdetermined
p2083
sI2081
Vinstinct
p2084
sI2082
Vadmirable
p2085
sI2083
Vdrop
p2086
sI2084
Vhighly
p2087
sI2085
Vunbelievably
p2088
sI2086
Vheels
p2089
sI2087
Vtheir
p2090
sI2088
Velement
p2091
sI2089
Vbridge
p2092
sI2090
Vstore
p2093
sI2091
Vcondition
p2094
sI2092
Vlocated
p2095
sI2093
Vlonging
p2096
sI2094
Vpeace
p2097
sI2095
Vmonth
p2098
sI2096
Vcommand
p2099
sI2097
Vbeginners
p2100
sI2098
Vgas
p2101
sI2099
Vammunition
p2102
sI2100
Vpride
p2103
sI2101
Vinsensitive
p2104
sI2102
Vabsolute
p2105
sI2103
Vexcellent
p2106
sI2104
Vblocking
p2107
sI2105
Vembarrassing
p2108
sI2106
Vsurprises
p2109
sI2107
Vspoiling
p2110
sI2108
Vsometimes
p2111
sI2109
Vtwisting
p2112
sI2110
Vworrying
p2113
sI2111
Vorder
p2114
sI2112
Vdictionary
p2115
sI2113
Vsociety
p2116
sI2114
Vcocaine
p2117
sI2115
Vburied
p2118
sI2116
Vmonths
p2119
sI2117
Vor
p2120
sI2118
Vinclined
p2121
sI2119
Vpublic
p2122
sI2120
Vleaf
p2123
sI2121
Vdoubts
p2124
sI2122
Voverwork
p2125
sI2123
Vslowly
p2126
sI2124
Vfresh
p2127
sI2125
Vdoes
p2128
sI2126
Vcloset
p2129
sI2127
Vdinosaurs
p2130
sI2128
Vbiological
p2131
sI2129
Vtable
p2132
sI2130
Vwanted
p2133
sI2131
Vdyeing
p2134
sI2132
Vbrown
p2135
sI2133
Vexplaining
p2136
sI2134
Vrules
p2137
sI2135
Vnetherlands
p2138
sI2136
Vfourteen
p2139
sI2137
Vshirts
p2140
sI2138
Vinvolved
p2141
sI2139
Vpacking
p2142
sI2140
Vlevel
p2143
sI2141
Vfilm
p2144
sI2142
Vwatering
p2145
sI2143
Vshelf
p2146
sI2144
Vspanish
p2147
sI2145
Vscarcely
p2148
sI2146
Vbend
p2149
sI2147
Varm
p2150
sI2148
Vbriefcase
p2151
sI2149
Vfinish
p2152
sI2150
Vfix
p2153
sI2151
Vexception
p2154
sI2152
Vpromises
p2155
sI2153
Vpraise
p2156
sI2154
Vsources
p2157
sI2155
Vstep
p2158
sI2156
Vfarther
p2159
sI2157
Vfire
p2160
sI2158
Vdied
p2161
sI2159
Vlaugh
p2162
sI2160
Vchilled
p2163
sI2161
Vbone
p2164
sI2162
Vmany
p2165
sI2163
Valoud
p2166
sI2164
Vmildly
p2167
sI2165
Vother
p2168
sI2166
Vwrongfully
p2169
sI2167
Vpunished
p2170
sI2168
Vwings
p2171
sI2169
Vweren
p2172
sI2170
Vearthquakes
p2173
sI2171
Vrope
p2174
sI2172
Vsort
p2175
sI2173
Vfinishing
p2176
sI2174
Vfocusing
p2177
sI2175
Vair
p2178
sI2176
Voutside
p2179
sI2177
Vdire
p2180
sI2178
Vorders
p2181
sI2179
Vsweater
p2182
sI2180
Vbatteries
p2183
sI2181
Vcamera
p2184
sI2182
Vforward
p2185
sI2183
Vscrambled
p2186
sI2184
Vmarathon
p2187
sI2185
Vnewspaper
p2188
sI2186
Vrelieved
p2189
sI2187
Vrelieving
p2190
sI2188
Vshade
p2191
sI2189
Vstarting
p2192
sI2190
Vmiddle
p2193
sI2191
Vbomb
p2194
sI2192
Vneck
p2195
sI2193
Vferry
p2196
sI2194
Volympics
p2197
sI2195
Vconfirmed
p2198
sI2196
Vgossip
p2199
sI2197
Veats
p2200
sI2198
Vshivered
p2201
sI2199
Vsight
p2202
sI2200
Vstomach
p2203
sI2201
Vslept
p2204
sI2202
Vhours
p2205
sI2203
Vfairly
p2206
sI2204
Vquickly
p2207
sI2205
Velse
p2208
sI2206
Vspecialist
p2209
sI2207
Vlettuce
p2210
sI2208
Vbarefoot
p2211
sI2209
Vbasketball
p2212
sI2210
Vbreathing
p2213
sI2211
Vpure
p2214
sI2212
Vhiring
p2215
sI2213
Vconference
p2216
sI2214
Vbecause
p2217
sI2215
Vrescue
p2218
sI2216
Vmission
p2219
sI2217
Vdistracted
p2220
sI2218
Vyourself
p2221
sI2219
Vasking
p2222
sI2220
Vdeceiving
p2223
sI2221
Vlies
p2224
sI2222
Vscissors
p2225
sI2223
Vgoodnight
p2226
sI2224
Vphotograph
p2227
sI2225
Vcompulsive
p2228
sI2226
Vstatesman
p2229
sI2227
Vharvard
p2230
sI2228
Vabsorbed
p2231
sI2229
Vconcert
p2232
sI2230
Vmentally
p2233
sI2231
Vhandicapped
p2234
sI2232
Vagriculture
p2235
sI2233
Vconstruction
p2236
sI2234
Vabiding
p2237
sI2235
Vfeller
p2238
sI2236
Vzealous
p2239
sI2237
Vcomics
p2240
sI2238
Vdefinitely
p2241
sI2239
Vjokes
p2242
sI2240
Vsatisfy
p2243
sI2241
Vbuddy
p2244
sI2242
Virrational
p2245
sI2243
Varts
p2246
sI2244
Vdifficulties
p2247
sI2245
Vstories
p2248
sI2246
Vcuban
p2249
sI2247
Vevening
p2250
sI2248
Vattend
p2251
sI2249
Vdetect
p2252
sI2250
Vpattern
p2253
sI2251
Vlogic
p2254
sI2252
Valong
p2255
sI2253
Vrid
p2256
sI2254
Vthrough
p2257
sI2255
Vsounds
p2258
sI2256
Vpace
p2259
sI2257
Vlend
p2260
sI2258
Vraise
p2261
sI2259
Vletters
p2262
sI2260
Vdescribe
p2263
sI2261
Vdifference
p2264
sI2262
Vjealousy
p2265
sI2263
Vtruth
p2266
sI2264
Vrestrain
p2267
sI2265
Vadmiring
p2268
sI2266
Vyork
p2269
sI2267
Vjune
p2270
sI2268
Vexpelled
p2271
sI2269
Vpleasantly
p2272
sI2270
Vweeks
p2273
sI2271
Vearned
p2274
sI2272
Vproblems
p2275
sI2273
Vsimple
p2276
sI2274
Vcomplaint
p2277
sI2275
Vblack
p2278
sI2276
Vbelt
p2279
sI2277
Vkarate
p2280
sI2278
Vkeeping
p2281
sI2279
Vsecrets
p2282
sI2280
Vbreast
p2283
sI2281
Vsalary
p2284
sI2282
Vdeparting
p2285
sI2283
Vdropping
p2286
sI2284
Vfirmly
p2287
sI2285
Vopposed
p2288
sI2286
Vhong
p2289
sI2287
Vkong
p2290
sI2288
Vparticular
p2291
sI2289
Vflower
p2292
sI2290
Vfinancial
p2293
sI2291
Vshoot
p2294
sI2292
Vparties
p2295
sI2293
Vcoach
p2296
sI2294
Vegg
p2297
sI2295
Vsaving
p2298
sI2296
Vsnowed
p2299
sI2297
Vinterrupt
p2300
sI2298
Vgames
p2301
sI2299
Vcomments
p2302
sI2300
Vtougher
p2303
sI2301
Vcheer
p2304
sI2302
Vgift
p2305
sI2303
Vshop
p2306
sI2304
Vpassion
p2307
sI2305
Voutstanding
p2308
sI2306
Vsoprano
p2309
sI2307
Vforbidden
p2310
sI2308
Vcross
p2311
sI2309
Vsnakes
p2312
sI2310
V
p2313
sI2311
Venter
p2314
sI2312
Vsays
p2315
sI2313
Vlikes
p2316
sI2314
Vrecord
p2317
sI2315
Vpistol
p2318
sI2316
Vrelatively
p2319
sI2317
Vbecame
p2320
sI2318
Vdentist
p2321
sI2319
Vfallen
p2322
sI2320
Vambulance
p2323
sI2321
Vcharity
p2324
sI2322
Vextreme
p2325
sI2323
Vcases
p2326
sI2324
Vhockey
p2327
sI2325
Vscience
p2328
sI2326
Vlab
p2329
sI2327
Vlovebirds
p2330
sI2328
Vmarket
p2331
sI2329
Vhonesty
p2332
sI2330
Vhunger
p2333
sI2331
Vheading
p2334
sI2332
Vdisaster
p2335
sI2333
Veach
p2336
sI2334
Vgermans
p2337
sI2335
Vremarkable
p2338
sI2336
Vways
p2339
sI2337
Vpotato
p2340
sI2338
Vtesting
p2341
sI2339
Vpatience
p2342
sI2340
Vclean
p2343
sI2341
Vtowels
p2344
sI2342
Vice
p2345
sI2343
Vcream
p2346
sI2344
Vluggage
p2347
sI2345
Vprivately
p2348
sI2346
Vformidable
p2349
sI2347
Vopponent
p2350
sI2348
Vmathematical
p2351
sI2349
Vauthority
p2352
sI2350
Vtwenties
p2353
sI2351
Vtalent
p2354
sI2352
Vlacking
p2355
sI2353
Vexperience
p2356
sI2354
Vfrog
p2357
sI2355
Vrarely
p2358
sI2356
Vstage
p2359
sI2357
Vsuffering
p2360
sI2358
Vtremendously
p2361
sI2359
Vdiligent
p2362
sI2360
Vfreelance
p2363
sI2361
Vindependent
p2364
sI2362
Vthinker
p2365
sI2363
Vcorrecting
p2366
sI2364
Vmistakes
p2367
sI2365
Vten
p2368
sI2366
Vo
p2369
sI2367
Vclock
p2370
sI2368
Vworst
p2371
sI2369
Vtranslating
p2372
sI2370
Vacross
p2373
sI2371
Vhunt
p2374
sI2372
Vlanguage
p2375
sI2373
Vcollect
p2376
sI2374
Vemphasize
p2377
sI2375
Vomelet
p2378
sI2376
Vanybody
p2379
sI2377
Vmatter
p2380
sI2378
Vpass
p2381
sI2379
Vchance
p2382
sI2380
Vpoker
p2383
sI2381
Vlyrics
p2384
sI2382
Vrepair
p2385
sI2383
Vresist
p2386
sI2384
Varrogance
p2387
sI2385
Vvisit
p2388
sI2386
Vuntil
p2389
sI2387
Vprevented
p2390
sI2388
Vfog
p2391
sI2389
Vanger
p2392
sI2390
Vsmile
p2393
sI2391
Vcool
p2394
sI2392
Vcucumber
p2395
sI2393
Vbitterly
p2396
sI2394
Vspeech
p2397
sI2395
Vapril
p2398
sI2396
Vcompelled
p2399
sI2397
Vdazzled
p2400
sI2398
Vfile
p2401
sI2399
Vinterviewed
p2402
sI2400
Vscolded
p2403
sI2401
Vsweating
p2404
sI2402
Vexplanation
p2405
sI2403
Vmillionaire
p2406
sI2404
Vesperanto
p2407
sI2405
Vchoice
p2408
sI2406
Vline
p2409
sI2407
Vactress
p2410
sI2408
Vmodel
p2411
sI2409
Vits
p2412
sI2410
Vdining
p2413
sI2411
Vmakes
p2414
sI2412
Vpills
p2415
sI2413
Vpropose
p2416
sI2414
Vsolving
p2417
sI2415
Vlately
p2418
sI2416
Vskating
p2419
sI2417
Vwaste
p2420
sI2418
Vsaying
p2421
sI2419
Vcampus
p2422
sI2420
Vpassionate
p2423
sI2421
Vreleasing
p2424
sI2422
Vcomplaints
p2425
sI2423
Vamiable
p2426
sI2424
Vgracious
p2427
sI2425
Vaffection
p2428
sI2426
Vmouth
p2429
sI2427
Vmuttering
p2430
sI2428
Vpotatoes
p2431
sI2429
Vannoyed
p2432
sI2430
Vhundred
p2433
sI2431
Vdollars
p2434
sI2432
Vshouldn
p2435
sI2433
Vfluently
p2436
sI2434
Vminutes
p2437
sI2435
Vstays
p2438
sI2436
Vdaisies
p2439
sI2437
Vinquisitive
p2440
sI2438
Vdreams
p2441
sI2439
Vunaware
p2442
sI2440
Vhandy
p2443
sI2441
Vteachers
p2444
sI2442
Vseeking
p2445
sI2443
Vsolution
p2446
sI2444
Vcouple
p2447
sI2445
Vhippies
p2448
sI2446
Vprison
p2449
sI2447
Vthemselves
p2450
sI2448
Vquicker
p2451
sI2449
Vapt
p2452
sI2450
Vmild
p2453
sI2451
Vheight
p2454
sI2452
Vwhere
p2455
sI2453
Vprecious
p2456
sI2454
Vsheet
p2457
sI2455
Velite
p2458
sI2456
Vsubject
p2459
sI2457
Vmistake
p2460
sI2458
Vattention
p2461
sI2459
Vannoy
p2462
sI2460
Vanytime
p2463
sI2461
Vquestions
p2464
sI2462
Vdrier
p2465
sI2463
Vheadphones
p2466
sI2464
Vreceipt
p2467
sI2465
Vnumber
p2468
sI2466
Vprofession
p2469
sI2467
Vnovelist
p2470
sI2468
Vinformed
p2471
sI2469
Vflute
p2472
sI2470
Vfailure
p2473
sI2471
Vconsidered
p2474
sI2472
Vconstantly
p2475
sI2473
Vcontented
p2476
sI2474
Vapparently
p2477
sI2475
Vvote
p2478
sI2476
Vtrifled
p2479
sI2477
Vprejudiced
p2480
sI2478
Vpioneer
p2481
sI2479
Vscholar
p2482
sI2480
Vdisagreeable
p2483
sI2481
Vmeetings
p2484
sI2482
Vfaults
p2485
sI2483
Voffending
p2486
sI2484
Vconduct
p2487
sI2485
Vfamiliar
p2488
sI2486
Vaustralian
p2489
sI2487
Vcomputers
p2490
sI2488
Vbeggar
p2491
sI2489
Vresult
p2492
sI2490
Vworkshop
p2493
sI2491
Vpounding
p2494
sI2492
Vrecommend
p2495
sI2493
Vrelate
p2496
sI2494
Vguest
p2497
sI2495
Vminute
p2498
sI2496
Vadd
p2499
sI2497
Vhappened
p2500
sI2498
Vhappens
p2501
sI2499
Vplane
p2502
sI2500
Vlock
p2503
sI2501
Vopened
p2504
sI2502
Vrepeat
p2505
sI2503
Vshare
p2506
sI2504
Vstretch
p2507
sI2505
Vcough
p2508
sI2506
Vanyplace
p2509
sI2507
Vcigarette
p2510
sI2508
Vmarch
p2511
sI2509
Vsign
p2512
sI2510
Vblowing
p2513
sI2511
Vsteam
p2514
sI2512
Vremote
p2515
sI2513
Vtemporarily
p2516
sI2514
Vwent
p2517
sI2515
Vprevent
p2518
sI2516
Vmention
p2519
sI2517
Vtrick
p2520
sI2518
Vmemory
p2521
sI2519
Vbelieved
p2522
sI2520
Veasy
p2523
sI2521
Vraining
p2524
sI2522
Vmerry
p2525
sI2523
Vchristmas
p2526
sI2524
Vreader
p2527
sI2525
Vpractice
p2528
sI2526
Vrumor
p2529
sI2527
Vreconsider
p2530
sI2528
Vassuming
p2531
sI2529
Vconsidering
p2532
sI2530
Vlaziness
p2533
sI2531
Vweather
p2534
sI2532
Vpost
p2535
sI2533
Vsituation
p2536
sI2534
Vstating
p2537
sI2535
Vobvious
p2538
sI2536
Vtelevision
p2539
sI2537
Vmultitasking
p2540
sI2538
Vargue
p2541
sI2539
Vhusband
p2542
sI2540
Vspiders
p2543
sI2541
Vagreed
p2544
sI2542
Vskills
p2545
sI2543
Vcaptain
p2546
sI2544
Vliking
p2547
sI2545
Vdehydrate
p2548
sI2546
Vfield
p2549
sI2547
Vlady
p2550
sI2548
Vneatly
p2551
sI2549
Venvious
p2552
sI2550
Vfrightened
p2553
sI2551
Vthunder
p2554
sI2552
Vimitating
p2555
sI2553
Vignorant
p2556
sI2554
Vremarkably
p2557
sI2555
Vsuggested
p2558
sI2556
Vsorority
p2559
sI2557
Vforgotten
p2560
sI2558
Vloving
p2561
sI2559
Vpursuing
p2562
sI2560
Vrobber
p2563
sI2561
Vnation
p2564
sI2562
Vstorm
p2565
sI2563
Vlives
p2566
sI2564
Vinvestigating
p2567
sI2565
Vmurder
p2568
sI2566
Vallowed
p2569
sI2567
Vleast
p2570
sI2568
Vunderstaffed
p2571
sI2569
Vstrangely
p2572
sI2570
Vscare
p2573
sI2571
Vcarrying
p2574
sI2572
Vmaniac
p2575
sI2573
Vbelong
p2576
sI2574
Vbother
p2577
sI2575
Vkilo
p2578
sI2576
Vtoilet
p2579
sI2577
Vnutty
p2580
sI2578
Vfruitcake
p2581
sI2579
Vtyping
p2582
sI2580
Vreports
p2583
sI2581
Vcommander
p2584
sI2582
Vtroops
p2585
sI2583
Vcrossing
p2586
sI2584
Vstreet
p2587
sI2585
Vearning
p2588
sI2586
Vsuperior
p2589
sI2587
Vimage
p2590
sI2588
Vrichest
p2591
sI2589
Vactually
p2592
sI2590
Vformer
p2593
sI2591
Vrare
p2594
sI2592
Vindividual
p2595
sI2593
Vbusinessman
p2596
sI2594
Vclowning
p2597
sI2595
Vscams
p2598
sI2596
Vattracted
p2599
sI2597
Vwomen
p2600
sI2598
Vcunning
p2601
sI2599
Vmanipulative
p2602
sI2600
Vliberal
p2603
sI2601
Vupbringing
p2604
sI2602
Vgrades
p2605
sI2603
Vbehavior
p2606
sI2604
Vsafety
p2607
sI2605
Vdecorating
p2608
sI2606
Vtraining
p2609
sI2607
Vdefeat
p2610
sI2608
Vonions
p2611
sI2609
Vremain
p2612
sI2610
Vmiles
p2613
sI2611
Vgarbage
p2614
sI2612
Vbags
p2615
sI2613
Vswitch
p2616
sI2614
Vjungle
p2617
sI2615
Vsympathy
p2618
sI2616
Vencouraged
p2619
sI2617
Vmedicine
p2620
sI2618
Vkindness
p2621
sI2619
Vemotion
p2622
sI2620
Vastonished
p2623
sI2621
Vkept
p2624
sI2622
Vvalentine
p2625
sI2623
Vegypt
p2626
sI2624
Vsomeday
p2627
sI2625
Vrespectable
p2628
sI2626
Vmust
p2629
sI2627
Vawfully
p2630
sI2628
Venjoy
p2631
sI2629
Vgrumbling
p2632
sI2630
Vflying
p2633
sI2631
Vcompared
p2634
sI2632
Veurope
p2635
sI2633
Vgrow
p2636
sI2634
Vmail
p2637
sI2635
Vnote
p2638
sI2636
Vhanover
p2639
sI2637
Vunless
p2640
sI2638
Vimpress
p2641
sI2639
Vunderwear
p2642
sI2640
Vsending
p2643
sI2641
Vcalifornia
p2644
sI2642
Vflight
p2645
sI2643
Vjanuary
p2646
sI2644
Vsurvived
p2647
sI2645
Vjobs
p2648
sI2646
V.m
p2649
sI2647
Vpajamas
p2650
sI2648
Vbarking
p2651
sI2649
Vdevoted
p2652
sI2650
Vparalyzed
p2653
sI2651
Vmirror
p2654
sI2652
Vspent
p2655
sI2653
Vhatred
p2656
sI2654
Vneither
p2657
sI2655
Vnor
p2658
sI2656
Vtags
p2659
sI2657
Vbabies
p2660
sI2658
Vstaring
p2661
sI2659
Vcrop
p2662
sI2660
Vtravel
p2663
sI2661
Vbarcelona
p2664
sI2662
Vchecking
p2665
sI2663
Varea
p2666
sI2664
Vpaint
p2667
sI2665
Vbug
p2668
sI2666
Vbutterfly
p2669
sI2667
Vrole
p2670
sI2668
Vcup
p2671
sI2669
Vrespected
p2672
sI2670
Vexpected
p2673
sI2671
Vdeveloped
p2674
sI2672
Vlicense
p2675
sI2673
Vthoughtful
p2676
sI2674
Vshadow
p2677
sI2675
Vbuttering
p2678
sI2676
Vability
p2679
sI2677
Vfacing
p2680
sI2678
Vchicago
p2681
sI2679
Vpunctuality
p2682
sI2680
Vtoothache
p2683
sI2681
Vdirector
p2684
sI2682
Vmondays
p2685
sI2683
Vassociate
p2686
sI2684
Vobsessed
p2687
sI2685
Vcleanliness
p2688
sI2686
Vgolfing
p2689
sI2687
Vlaziest
p2690
sI2688
Vpresident
p2691
sI2689
Vmountain
p2692
sI2690
Vclimbing
p2693
sI2691
Vnonsense
p2694
sI2692
Vproposal
p2695
sI2693
Vpositive
p2696
sI2694
Vhappiest
p2697
sI2695
Vrate
p2698
sI2696
Vnose
p2699
sI2697
Vzipped
p2700
sI2698
Vpredict
p2701
sI2699
Vhandwriting
p2702
sI2700
Vstomachache
p2703
sI2701
Vmeaning
p2704
sI2702
Vvacations
p2705
sI2703
Vendure
p2706
sI2704
Vbetween
p2707
sI2705
Vlines
p2708
sI2706
Vawakened
p2709
sI2707
Vcaptivated
p2710
sI2708
Vwedding
p2711
sI2709
Vmiracle
p2712
sI2710
Vwhile
p2713
sI2711
Vmillion
p2714
sI2712
Vmt
p2715
sI2713
Vfuji
p2716
sI2714
Vinformation
p2717
sI2715
Vhumble
p2718
sI2716
Vtalks
p2719
sI2717
Vpassed
p2720
sI2718
Vfeed
p2721
sI2719
Vducks
p2722
sI2720
Vhorror
p2723
sI2721
Vpolitics
p2724
sI2722
Vparticularly
p2725
sI2723
Vtimes
p2726
sI2724
Vresults
p2727
sI2725
Vsensing
p2728
sI2726
Vhostility
p2729
sI2727
Vbothering
p2730
sI2728
Vdisagree
p2731
sI2729
Vhandkerchiefs
p2732
sI2730
Vobedient
p2733
sI2731
Vvaluable
p2734
sI2732
Vring
p2735
sI2733
Vadequate
p2736
sI2734
Vurgent
p2737
sI2735
Vtelegram
p2738
sI2736
Vairmail
p2739
sI2737
Vcarried
p2740
sI2738
Vcigarettes
p2741
sI2739
Vswam
p2742
sI2740
Vdependent
p2743
sI2741
Vexams
p2744
sI2742
Vpacific
p2745
sI2743
Vbattle
p2746
sI2744
Vfreeze
p2747
sI2745
Vthanksgiving
p2748
sI2746
Vones
p2749
sI2747
Varrive
p2750
sI2748
Vabusing
p2751
sI2749
Vunreasonable
p2752
sI2750
Vruin
p2753
sI2751
Vaccompany
p2754
sI2752
Vpassport
p2755
sI2753
Vcompliment
p2756
sI2754
Vcomplete
p2757
sI2755
Vabsent
p2758
sI2756
Villness
p2759
sI2757
Vfrank
p2760
sI2758
Vnephew
p2761
sI2759
Vqualified
p2762
sI2760
Vproject
p2763
sI2761
Vunpopular
p2764
sI2762
Vaffectionate
p2765
sI2763
Vpromising
p2766
sI2764
Vbrain
p2767
sI2765
Vsurgeon
p2768
sI2766
Vevicted
p2769
sI2767
Vphysical
p2770
sI2768
Vinteresting
p2771
sI2769
Vstrict
p2772
sI2770
Vsuits
p2773
sI2771
Vties
p2774
sI2772
Vate
p2775
sI2773
Vinnocence
p2776
sI2774
Vinches
p2777
sI2775
Vmachine
p2778
sI2776
Vpicnic
p2779
sI2777
Vpenicillin
p2780
sI2778
Vpeasant
p2781
sI2779
Vinvoice
p2782
sI2780
Vfax
p2783
sI2781
Vconnect
p2784
sI2782
Vinternet
p2785
sI2783
Vmotives
p2786
sI2784
Vassist
p2787
sI2785
Vtranslate
p2788
sI2786
Vsentence
p2789
sI2787
Vcanceled
p2790
sI2788
Vreservation
p2791
sI2789
Votherwise
p2792
sI2790
Vduring
p2793
sI2791
Vshowa
p2794
sI2792
Vera
p2795
sI2793
Vhiroshima
p2796
sI2794
Vfebruary
p2797
sI2795
Vburned
p2798
sI2796
Vdischarged
p2799
sI2797
Vnotice
p2800
sI2798
Vsao
p2801
sI2799
Vpaulo
p2802
sI2800
Vremark
p2803
sI2801
Vdug
p2804
sI2802
Vradio
p2805
sI2803
Vwrote
p2806
sI2804
Vsung
p2807
sI2805
Vowe
p2808
sI2806
Vapology
p2809
sI2807
Vmisunderstood
p2810
sI2808
Vrisks
p2811
sI2809
Vsynagogue
p2812
sI2810
Vleather
p2813
sI2811
Vunwrap
p2814
sI2812
Vpackage
p2815
sI2813
Vgonna
p2816
sI2814
Vpenpal
p2817
sI2815
Vlens
p2818
sI2816
Vcriticized
p2819
sI2817
Vwhatsoever
p2820
sI2818
Vsubstitute
p2821
sI2819
Vrequesting
p2822
sI2820
Vpolitical
p2823
sI2821
Vasylum
p2824
sI2822
Vspace
p2825
sI2823
Vcash
p2826
sI2824
Vinconvenience
p2827
sI2825
Vresponse
p2828
sI2826
Voverlooked
p2829
sI2827
Vindecisive
p2830
sI2828
Vpurchase
p2831
sI2829
Vdistantly
p2832
sI2830
Vrainy
p2833
sI2831
Vmonotonous
p2834
sI2832
Vsmacked
p2835
sI2833
Vwrites
p2836
sI2834
Vstooped
p2837
sI2835
Vpebble
p2838
sI2836
Vstumbled
p2839
sI2837
Vwheelbarrow
p2840
sI2838
Vconsciousness
p2841
sI2839
Vnoises
p2842
sI2840
Vhandling
p2843
sI2841
Vsuit
p2844
sI2842
Vdiscussing
p2845
sI2843
Vstruggling
p2846
sI2844
Vfreedom
p2847
sI2845
Valike
p2848
sI2846
Vdifficult
p2849
sI2847
Vcompetition
p2850
sI2848
Vtight
p2851
sI2849
Vourselves
p2852
sI2850
Vgranted
p2853
sI2851
Vmature
p2854
sI2852
Vpiece
p2855
sI2853
Vuseful
p2856
sI2854
Vphrased
p2857
sI2855
Vincapable
p2858
sI2856
Vmarriage
p2859
sI2857
Vchief
p2860
sI2858
Vdepartment
p2861
sI2859
Vuncertain
p2862
sI2860
Vindeed
p2863
sI2861
Vcarbon
p2864
sI2862
Vcopy
p2865
sI2863
Vcrybaby
p2866
sI2864
Vprofessional
p2867
sI2865
Vhoarse
p2868
sI2866
Vyelling
p2869
sI2867
Vpar
p2870
sI2868
Vbeans
p2871
sI2869
Vrelying
p2872
sI2870
Vassure
p2873
sI2871
Vsaxophone
p2874
sI2872
Vsomewhere
p2875
sI2873
Vreluctance
p2876
sI2874
Vred
p2877
sI2875
Vdecisions
p2878
sI2876
Vblood
p2879
sI2877
Vbought
p2880
sI2878
Vinsults
p2881
sI2879
Vcab
p2882
sI2880
Vth
p2883
sI2881
Vdeceived
p2884
sI2882
Vappearance
p2885
sI2883
Vmight
p2886
sI2884
Vdiscovery
p2887
sI2885
Vtaught
p2888
sI2886
Vvaccinated
p2889
sI2887
Vsupper
p2890
sI2888
Vweekend
p2891
sI2889
Vchop
p2892
sI2890
Vtree
p2893
sI2891
Vconcentrating
p2894
sI2892
Vslouch
p2895
sI2893
Vart
p2896
sI2894
Vprivy
p2897
sI2895
Vdevil
p2898
sI2896
Vadvocate
p2899
sI2897
Vperformance
p2900
sI2898
Vresponsible
p2901
sI2899
Vhamburgers
p2902
sI2900
Vsticking
p2903
sI2901
Voriginal
p2904
sI2902
Vjet
p2905
sI2903
Vlag
p2906
sI2904
Vsemester
p2907
sI2905
Vowner
p2908
sI2906
Vmemorize
p2909
sI2907
Voffer
p2910
sI2908
Vpracticing
p2911
sI2909
Vfeeds
p2912
sI2910
Vscowled
p2913
sI2911
Vsighed
p2914
sI2912
Vsoftly
p2915
sI2913
Vsolved
p2916
sI2914
Vease
p2917
sI2915
Vinterpreter
p2918
sI2916
Vfront
p2919
sI2917
Vsucceeded
p2920
sI2918
Vsuffocated
p2921
sI2919
Vbusinesswoman
p2922
sI2920
Vpossible
p2923
sI2921
Vcaused
p2924
sI2922
Vpromised
p2925
sI2923
Vcolleagues
p2926
sI2924
Vextinction
p2927
sI2925
Vminimum
p2928
sI2926
Vwage
p2929
sI2927
Vbirthday
p2930
sI2928
Vtest
p2931
sI2929
Vantidote
p2932
sI2930
Ventitled
p2933
sI2931
Vopinion
p2934
sI2932
Vphilosopher
p2935
sI2933
Vanswering
p2936
sI2934
Vauthorized
p2937
sI2935
Vreality
p2938
sI2936
Vshallow
p2939
sI2937
Vmaterialistic
p2940
sI2938
Vpersonal
p2941
sI2939
Vsweaters
p2942
sI2940
Vlanguages
p2943
sI2941
Vdifficulty
p2944
sI2942
Ventire
p2945
sI2943
Vstingiest
p2946
sI2944
Vunsatisfied
p2947
sI2945
Vconcealing
p2948
sI2946
Vcafe
p2949
sI2947
Vcotton
p2950
sI2948
Vprincipal
p2951
sI2949
Vvulgar
p2952
sI2950
Vwet
p2953
sI2951
Vpassing
p2954
sI2952
Vseem
p2955
sI2953
Vrecite
p2956
sI2954
Vrecognize
p2957
sI2955
Vprize
p2958
sI2956
Vaffected
p2959
sI2957
Vpresent
p2960
sI2958
Vdoubting
p2961
sI2959
Vcell
p2962
sI2960
Vdemonstration
p2963
sI2961
Vvolunteers
p2964
sI2962
Vreport
p2965
sI2963
Vvillage
p2966
sI2964
Vclarinet
p2967
sI2965
Vskimming
p2968
sI2966
Vsheraton
p2969
sI2967
Vsheep
p2970
sI2968
Vluckiest
p2971
sI2969
Vwarning
p2972
sI2970
Vbeijing
p2973
sI2971
Vnative
p2974
sI2972
Vsnow
p2975
sI2973
Vpoems
p2976
sI2974
Vmonthly
p2977
sI2975
Vdaily
p2978
sI2976
Vsnake
p2979
sI2977
Vcharged
p2980
sI2978
Vshouted
p2981
sI2979
Vnobody
p2982
sI2980
Vheard
p2983
sI2981
Vastonishment
p2984
sI2982
Vseveral
p2985
sI2983
Vstirred
p2986
sI2984
Vsoup
p2987
sI2985
Vspoon
p2988
sI2986
Vnarita
p2989
sI2987
Vmonday
p2990
sI2988
Vfingers
p2991
sI2989
Vcrossed
p2992
sI2990
Vborder
p2993
sI2991
Vcreek
p2994
sI2992
Vpaddle
p2995
sI2993
Vhokkaido
p2996
sI2994
Vextent
p2997
sI2995
Vspoiled
p2998
sI2996
Vbrat
p2999
sI2997
Vspring
p3000
sI2998
Vpersonally
p3001
sI2999
Vhumanity
p3002
sI3000
Vassistance
p3003
sI3001
Vprice
p3004
sI3002
Vairplane
p3005
sI3003
Vfinding
p3006
sI3004
Vaccountant
p3007
sI3005
Vcompany
p3008
sI3006
Vcomplains
p3009
sI3007
Vremembering
p3010
sI3008
Vsponging
p3011
sI3009
Vchairman
p3012
sI3010
Vcommittee
p3013
sI3011
Vhyogo
p3014
sI3012
Vwonderfully
p3015
sI3013
Vrefreshed
p3016
sI3014
Vspend
p3017
sI3015
Vrace
p3018
sI3016
Vdraft
p3019
sI3017
Vyawning
p3020
sI3018
Vexact
p3021
sI3019
Vnumbers
p3022
sI3020
Vsacrifice
p3023
sI3021
Vguarantee
p3024
sI3022
Vdecision
p3025
sI3023
Vtomatoes
p3026
sI3024
Vworse
p3027
sI3025
Vbrought
p3028
sI3026
Vcontinued
p3029
sI3027
Vtreated
p3030
sI3028
Vattended
p3031
sI3029
Vlifetime
p3032
sI3030
Vhappiness
p3033
sI3031
Vespecially
p3034
sI3032
Vinvestigate
p3035
sI3033
Vmanners
p3036
sI3034
Vpossibility
p3037
sI3035
Vclassifying
p3038
sI3036
Vcentimeters
p3039
sI3037
Vphilosophy
p3040
sI3038
Vthunderstorms
p3041
sI3039
Vfalling
p3042
sI3040
Vpreparing
p3043
sI3041
Vhen
p3044
sI3042
Vcriticism
p3045
sI3043
Vfatter
p3046
sI3044
Vsigned
p3047
sI3045
Vspends
p3048
sI3046
Vspread
p3049
sI3047
Vstudied
p3050
sI3048
Vworked
p3051
sI3049
Vmatched
p3052
sI3050
Vplotting
p3053
sI3051
Vking
p3054
sI3052
Vcosts
p3055
sI3053
Vgermany
p3056
sI3054
Vpizza
p3057
sI3055
Vatomic
p3058
sI3056
Vours
p3059
sI3057
Vthought
p3060
sI3058
Vrecovery
p3061
sI3059
Vmillionth
p3062
sI3060
Vspecial
p3063
sI3061
Vumbrella
p3064
sI3062
Vseats
p3065
sI3063
Vglass
p3066
sI3064
Vpayment
p3067
sI3065
Vdealing
p3068
sI3066
Vinaccessible
p3069
sI3067
Vemployees
p3070
sI3068
Vmess
p3071
sI3069
Vgets
p3072
sI3070
Voxford
p3073
sI3071
Vforeign
p3074
sI3072
Vnational
p3075
sI3073
Vanthem
p3076
sI3074
Vmixing
p3077
sI3075
Vmayonnaise
p3078
sI3076
Vketchup
p3079
sI3077
Vcomfortable
p3080
sI3078
Vprotection
p3081
sI3079
Vobjection
p3082
sI3080
Vdoesn
p3083
sI3081
Vimmediately
p3084
sI3082
Vlongest
p3085
sI3083
Vkinds
p3086
sI3084
Vsuitable
p3087
sI3085
Vexample
p3088
sI3086
Vhates
p3089
sI3087
Vdull
p3090
sI3088
Vexcuse
p3091
sI3089
Vexpressed
p3092
sI3090
Vrudeness
p3093
sI3091
Vwarden
p3094
sI3092
Vfoolish
p3095
sI3093
Vtricks
p3096
sI3094
Vconscious
p3097
sI3095
Vpresence
p3098
sI3096
Vcrude
p3099
sI3097
Vkorea
p3100
sI3098
Vmobile
p3101
sI3099
Vgray
p3102
sI3100
Vflorida
p3103
sI3101
Vkunming
p3104
sI3102
Vdecide
p3105
sI3103
Vmisunderstanding
p3106
sI3104
Vconfidentially
p3107
sI3105
Vcareers
p3108
sI3106
Vappointments
p3109
sI3107
Ventrance
p3110
sI3108
Vseashells
p3111
sI3109
Vseashore
p3112
sI3110
Vcage
p3113
sI3111
Vstammers
p3114
sI3112
Vfeels
p3115
sI3113
Vsuffers
p3116
sI3114
Vpressure
p3117
sI3115
Vsince
p3118
sI3116
Vwednesday
p3119
sI3117
Varguing
p3120
sI3118
Vcompetent
p3121
sI3119
Vjudges
p3122
sI3120
Vvariety
p3123
sI3121
Vsizes
p3124
sI3122
Vsights
p3125
sI3123
Vheaded
p3126
sI3124
Vdirection
p3127
sI3125
Vnegotiations
p3128
sI3126
Vschoolteacher
p3129
sI3127
Vcomparing
p3130
sI3128
Voranges
p3131
sI3129
Veconomics
p3132
sI3130
Vlatin
p3133
sI3131
Vfaced
p3134
sI3132
Vculture
p3135
sI3133
Vthousand
p3136
sI3134
Vpreparations
p3137
sI3135
Vadvisor
p3138
sI3136
Vshivering
p3139
sI3137
Vaccountable
p3140
sI3138
Vneighborhood
p3141
sI3139
Vwarming
p3142
sI3140
Vfireplace
p3143
sI3141
Vfashion
p3144
sI3142
Vdelay
p3145
sI3143
Vreturn
p3146
sI3144
Vlumpy
p3147
sI3145
Vmattress
p3148
sI3146
Vcontain
p3149
sI3147
Vexcitement
p3150
sI3148
Vaccident
p3151
sI3149
Vlistened
p3152
sI3150
Valcoholics
p3153
sI3151
Vanonymous
p3154
sI3152
Vadding
p3155
sI3153
Vtouches
p3156
sI3154
Vovertime
p3157
sI3155
Vrealize
p3158
sI3156
Vhalfway
p3159
sI3157
Vwarm
p3160
sI3158
Vwoolen
p3161
sI3159
Vskirt
p3162
sI3160
Vphysics
p3163
sI3161
Vrelationship
p3164
sI3162
Vletting
p3165
sI3163
Vspaghetti
p3166
sI3164
Vdialed
p3167
sI3165
Vcommitment
p3168
sI3166
Vorganization
p3169
sI3167
Vbustling
p3170
sI3168
Vbookstore
p3171
sI3169
Vlarge
p3172
sI3170
Vnecklace
p3173
sI3171
Vshared
p3174
sI3172
Vsubstituted
p3175
sI3173
Vmargarine
p3176
sI3174
Vcontract
p3177
sI3175
Venlarge
p3178
sI3176
Venvironment
p3179
sI3177
Vsearch
p3180
sI3178
Vchoices
p3181
sI3179
Vghosts
p3182
sI3180
Veraser
p3183
sI3181
Vracket
p3184
sI3182
Vleeds
p3185
sI3183
Vrecent
p3186
sI3184
Vconvert
p3187
sI3185
Vcatholicism
p3188
sI3186
Vscale
p3189
sI3187
Vlaunch
p3190
sI3188
Vfastest
p3191
sI3189
Vliterature
p3192
sI3190
Vremarks
p3193
sI3191
Vracial
p3194
sI3192
Vdiscrimination
p3195
sI3193
Vprojectionist
p3196
sI3194
Vunlikely
p3197
sI3195
Vapply
p3198
sI3196
Vscholarship
p3199
sI3197
Vgoody
p3200
sI3198
Vtypes
p3201
sI3199
Vchallenge
p3202
sI3200
Vreflection
p3203
sI3201
Vpond
p3204
sI3202
Vhappening
p3205
sI3203
Vdigger
p3206
sI3204
Vsuggest
p3207
sI3205
Vmp
p3208
sI3206
Vtempered
p3209
sI3207
Vrang
p3210
sI3208
Vsomebody
p3211
sI3209
Vcharging
p3212
sI3210
Vamount
p3213
sI3211
Vrestaurants
p3214
sI3212
Vexcept
p3215
sI3213
Vearache
p3216
sI3214
Vbjork
p3217
sI3215
Vlatest
p3218
sI3216
Vp
p3219
sI3217
Vspoken
p3220
sI3218
Vthinks
p3221
sI3219
Vordering
p3222
sI3220
Vsidney
p3223
sI3221
Vsheldon
p3224
sI3222
Vappointment
p3225
sI3223
Vhandkerchief
p3226
sI3224
Vhoney
p3227
sI3225
Vthickly
p3228
sI3226
Vtoast
p3229
sI3227
Vcontagious
p3230
sI3228
Vdisease
p3231
sI3229
Vchairs
p3232
sI3230
Vmethod
p3233
sI3231
Vconnecting
p3234
sI3232
Vparish
p3235
sI3233
Vbiology
p3236
sI3234
Vcurrently
p3237
sI3235
Vtax
p3238
sI3236
Vfraud
p3239
sI3237
Vfinancially
p3240
sI3238
Vdiplomatic
p3241
sI3239
Vcareer
p3242
sI3240
Vfinnish
p3243
sI3241
Vswedish
p3244
sI3242
Vextinguishing
p3245
sI3243
Vfulfill
p3246
sI3244
Vobligations
p3247
sI3245
Vtemptation
p3248
sI3246
Vtolerate
p3249
sI3247
Vmatsuyama
p3250
sI3248
Vorphanage
p3251
sI3249
Vdifferently
p3252
sI3250
Vgreek
p3253
sI3251
Vmythology
p3254
sI3252
Vlunches
p3255
sI3253
Vroman
p3256
sI3254
Vexpressing
p3257
sI3255
Vevent
p3258
sI3256
Vbackpack
p3259
sI3257
Vear
p3260
sI3258
Vnowhere
p3261
sI3259
Vtakes
p3262
sI3260
Vholidays
p3263
sI3261
Vstrongly
p3264
sI3262
Vresembles
p3265
sI3263
Vswallowed
p3266
sI3264
Vhook
p3267
sI3265
Vsinker
p3268
sI3266
Vmanufactured
p3269
sI3267
Vvarious
p3270
sI3268
Vfewer
p3271
sI3269
Vloading
p3272
sI3270
Vhire
p3273
sI3271
Vpermitted
p3274
sI3272
Vdestiny
p3275
sI3273
Vfuss
p3276
sI3274
Vexacerbating
p3277
sI3275
Vcausing
p3278
sI3276
Vexchange
p3279
sI3277
Vastronaut
p3280
sI3278
Vacquaintance
p3281
sI3279
Vinsects
p3282
sI3280
Vsobbing
p3283
sI3281
Vbedroom
p3284
sI3282
Vcourage
p3285
sI3283
Vproduct
p3286
sI3284
Vfifteen
p3287
sI3285
Vlearns
p3288
sI3286
Vsongs
p3289
sI3287
Vsixteen
p3290
sI3288
Vsank
p3291
sI3289
Vsurface
p3292
sI3290
Vinterest
p3293
sI3291
Vgrandma
p3294
sI3292
Vgrandpa
p3295
sI3293
Vsavings
p3296
sI3294
Vweakness
p3297
sI3295
Vdiplomat
p3298
sI3296
Vembassy
p3299
sI3297
Vpresents
p3300
sI3298
Velection
p3301
sI3299
Vpersonality
p3302
sI3300
Vsole
p3303
sI3301
Vbreadwinner
p3304
sI3302
Vreceding
p3305
sI3303
Vhairline
p3306
sI3304
Vyen
p3307
sI3305
Vconfronted
p3308
sI3306
Vbreaststroke
p3309
sI3307
Vbackstroke
p3310
sI3308
Vtelephoned
p3311
sI3309
Vrecently
p3312
sI3310
Vautomobile
p3313
sI3311
Vknows
p3314
sI3312
Vaccepted
p3315
sI3313
Vswimsuit
p3316
sI3314
Vexceedingly
p3317
sI3315
Vsqueezed
p3318
sI3316
Vjuice
p3319
sI3317
Vdonating
p3320
sI3318
Vresearch
p3321
sI3319
Vaffair
p3322
sI3320
Vharvest
p3323
sI3321
Vhospitality
p3324
sI3322
Vwhatever
p3325
sI3323
Vcommitted
p3326
sI3324
Vsuicide
p3327
sI3325
Vimpolite
p3328
sI3326
Vbravest
p3329
sI3327
Vmarketing
p3330
sI3328
Vrumors
p3331
sI3329
Vhike
p3332
sI3330
Vconditioned
p3333
sI3331
Vcorporal
p3334
sI3332
Vpunishment
p3335
sI3333
Vspending
p3336
sI3334
Veve
p3337
sI3335
Vexamination
p3338
sI3336
Vbroken
p3339
sI3337
Vadjusted
p3340
sI3338
Vmatters
p3341
sI3339
Vwhich
p3342
sI3340
Vbudget
p3343
sI3341
Vemergency
p3344
sI3342
Vcountries
p3345
sI3343
Vsukiyaki
p3346
sI3344
Vlinguistics
p3347
sI3345
Vmanaging
p3348
sI3346
Vbreaking
p3349
sI3347
Vconversation
p3350
sI3348
Vexpress
p3351
sI3349
Vdissatisfaction
p3352
sI3350
Vwears
p3353
sI3351
Vsuccessfully
p3354
sI3352
Vneighbors
p3355
sI3353
Vaddition
p3356
sI3354
Vcollecting
p3357
sI3355
Vblankets
p3358
sI3356
Veffects
p3359
sI3357
Veconomically
p3360
sI3358
Vaccount
p3361
sI3359
Vcorrectly
p3362
sI3360
Vlack
p3363
sI3361
Vresponsability
p3364
sI3362
Vclassical
p3365
sI3363
Vanticipate
p3366
sI3364
Vmodestly
p3367
sI3365
Vbehave
p3368
sI3366
Vquality
p3369
sI3367
Vbrushes
p3370
sI3368
Vpublication
p3371
sI3369
Vfurniture
p3372
sI3370
Vbabysit
p3373
sI3371
Vcockroaches
p3374
sI3372
Vcorruption
p3375
sI3373
Vwore
p3376
sI3374
Vhousewarming
p3377
sI3375
Vcompetitors
p3378
sI3376
Vexperiments
p3379
sI3377
Vlaboratory
p3380
sI3378
Vknowledgeable
p3381
sI3379
Vcontributions
p3382
ssVn_words
p3383
I3380
sVword2index
p3384
(dp3385
g1286
I1283
sg2313
I2310
sg757
I754
sg2524
I2521
sg2865
I2862
sg2124
I2121
sg600
I597
sg1536
I1533
sg312
I309
sg1680
I1677
sg1792
I1789
sg468
I465
sg184
I181
sg2048
I2045
sg2244
I2241
sg1871
I1868
sg230
I227
sg1291
I1288
sg2458
I2455
sg3300
I3297
sg544
I541
sg2820
I2817
sg1096
I1093
sg1070
I1067
sg60
I57
sg2103
I2100
sg2075
I2072
sg534
I531
sg637
I634
sg1114
I1111
sg3106
I3103
sg2294
I2291
sg2843
I2840
sg1761
I1758
sg613
I610
sg361
I358
sg83
I80
sg2522
I2519
sg539
I536
sg831
I828
sg2482
I2479
sg2545
I2542
sg2581
I2578
sg2678
I2675
sg2446
I2443
sg407
I404
sg2877
I2874
sg3266
I3263
sg1723
I1720
sg1440
I1437
sg2631
I2628
sg1671
I1668
sg2834
I2831
sg61
I58
sg297
I294
sg3343
I3340
sg2373
I2370
sg1133
I1130
sg2587
I2584
sg1846
I1843
sg105
I102
sg2546
I2543
sg1164
I1161
sg864
I861
sg703
I700
sg688
I685
sg2832
I2829
sg2172
I2169
sg2807
I2804
sg1508
I1505
sg2487
I2484
sg586
I583
sg1410
I1407
sg1880
I1877
sg2209
I2206
sg1949
I1946
sg81
I78
sg2069
I2066
sg623
I620
sg102
I99
sg772
I769
sg23
I20
sg1019
I1016
sg1226
I1223
sg526
I523
sg1334
I1331
sg365
I362
sg369
I366
sg1255
I1252
sg1009
I1006
sg911
I908
sg2347
I2344
sg1153
I1150
sg3132
I3129
sg2583
I2580
sg1092
I1089
sg1964
I1961
sg313
I310
sg1403
I1400
sg2460
I2457
sg3335
I3332
sg1132
I1129
sg3045
I3042
sg1844
I1841
sg1080
I1077
sg2014
I2011
sg3028
I3025
sg2342
I2339
sg937
I934
sg863
I860
sg649
I646
sg907
I904
sg1587
I1584
sg1511
I1508
sg1336
I1333
sg2145
I2142
sg947
I944
sg2389
I2386
sg2755
I2752
sg2495
I2492
sg1171
I1168
sg283
I280
sg709
I706
sg531
I528
sg2250
I2247
sg941
I938
sg136
I133
sg2642
I2639
sg239
I236
sg1305
I1302
sg3160
I3157
sg2768
I2765
sg1476
I1473
sg1854
I1851
sg2106
I2103
sg1786
I1783
sg1301
I1298
sg1980
I1977
sg2629
I2626
sg290
I287
sg281
I278
sg1297
I1294
sg220
I217
sg1903
I1900
sg316
I313
sg593
I590
sg2013
I2010
sg222
I219
sg2795
I2792
sg1525
I1522
sg117
I114
sg3088
I3085
sg1074
I1071
sg3352
I3349
sg618
I615
sg1163
I1160
sg1154
I1151
sg966
I963
sg2921
I2918
sg2924
I2921
sg2008
I2005
sg2682
I2679
sg1360
I1357
sg2105
I2102
sg2857
I2854
sg1213
I1210
sg3061
I3058
sg2927
I2924
sg1191
I1188
sg1235
I1232
sg2663
I2660
sg1771
I1768
sg188
I185
sg2778
I2775
sg1123
I1120
sg496
I493
sg1573
I1570
sg847
I844
sg1516
I1513
sg3212
I3209
sg3057
I3054
sg1032
I1029
sg2383
I2380
sg2151
I2148
sg603
I600
sg3071
I3068
sg289
I286
sg2289
I2286
sg2329
I2326
sg2130
I2127
sg137
I134
sg1707
I1704
sg2691
I2688
sg171
I168
sg3201
I3198
sg2831
I2828
sg2163
I2160
sg3305
I3302
sg1468
I1465
sg1970
I1967
sg2741
I2738
sg1110
I1107
sg2617
I2614
sg768
I765
sg2314
I2311
sg362
I359
sg1694
I1691
sg2114
I2111
sg930
I927
sg2622
I2619
sg1121
I1118
sg358
I355
sg360
I357
sg418
I415
sg1600
I1597
sg3267
I3264
sg3279
I3276
sg1111
I1108
sg500
I497
sg2875
I2872
sg3143
I3140
sg2153
I2150
sg1065
I1062
sg84
I81
sg3252
I3249
sg2273
I2270
sg2085
I2082
sg2377
I2374
sg1198
I1195
sg880
I877
sg2959
I2956
sg329
I326
sg2390
I2387
sg3297
I3294
sg471
I468
sg359
I356
sg1613
I1610
sg900
I897
sg3359
I3356
sg261
I258
sg2300
I2297
sg2221
I2218
sg3002
I2999
sg1603
I1600
sg832
I829
sg2138
I2135
sg702
I699
sg2431
I2428
sg1193
I1190
sg2134
I2131
sg938
I935
sg2336
I2333
sg217
I214
sg2517
I2514
sg1236
I1233
sg1614
I1611
sg2164
I2161
sg66
I63
sg2064
I2061
sg2293
I2290
sg2312
I2309
sg2364
I2361
sg777
I774
sg3217
I3214
sg3119
I3116
sg923
I920
sg2888
I2885
sg1240
I1237
sg192
I189
sg376
I373
sg3182
I3179
sg1514
I1511
sg1925
I1922
sg1351
I1348
sg499
I496
sg510
I507
sg717
I714
sg523
I520
sg1283
I1280
sg103
I100
sg2607
I2604
sg2527
I2524
sg2620
I2617
sg674
I671
sg1120
I1117
sg3001
I2998
sg3196
I3193
sg2686
I2683
sg2028
I2025
sg20
I17
sg927
I924
sg3109
I3106
sg1889
I1886
sg2133
I2130
sg3371
I3368
sg1457
I1454
sg2775
I2772
sg1861
I1858
sg1929
I1926
sg300
I297
sg2073
I2070
sg2334
I2331
sg1024
I1021
sg794
I791
sg1489
I1486
sg1757
I1754
sg924
I921
sg1876
I1873
sg2850
I2847
sg2956
I2953
sg3210
I3207
sg729
I726
sg1906
I1903
sg1801
I1798
sg2038
I2035
sg2010
I2007
sg322
I319
sg59
I56
sg1866
I1863
sg1684
I1681
sg3136
I3133
sg2630
I2627
sg2235
I2232
sg2212
I2209
sg1214
I1211
sg3165
I3162
sg1895
I1892
sg689
I686
sg1592
I1589
sg788
I785
sg2353
I2350
sg1317
I1314
sg138
I135
sg160
I157
sg1243
I1240
sg1605
I1602
sg1028
I1025
sg1202
I1199
sg449
I446
sg1076
I1073
sg3370
I3367
sg121
I118
sg406
I403
sg1718
I1715
sg1774
I1771
sg3332
I3329
sg212
I209
sg2893
I2890
sg1320
I1317
sg1342
I1339
sg2380
I2377
sg275
I272
sg245
I242
sg481
I478
sg574
I571
sg2092
I2089
sg3144
I3141
sg3226
I3223
sg604
I601
sg344
I341
sg1268
I1265
sg1365
I1362
sg1500
I1497
sg3066
I3063
sg2655
I2652
sg3146
I3143
sg169
I166
sg1806
I1803
sg1582
I1579
sg2955
I2952
sg1785
I1782
sg1016
I1013
sg1693
I1690
sg2901
I2898
sg2975
I2972
sg899
I896
sg2231
I2228
sg550
I547
sg1207
I1204
sg2405
I2402
sg1015
I1012
sg2939
I2936
sg2000
I1997
sg728
I725
sg1594
I1591
sg331
I328
sg1428
I1425
sg2190
I2187
sg3149
I3146
sg1335
I1332
sg605
I602
sg1886
I1883
sg687
I684
sg6
I3
sg505
I502
sg3017
I3014
sg3378
I3375
sg2241
I2238
sg429
I426
sg2554
I2551
sg3295
I3292
sg3056
I3053
sg2432
I2429
sg1750
I1747
sg2421
I2418
sg2194
I2191
sg2384
I2381
sg2285
I2282
sg3282
I3279
sg2484
I2481
sg644
I641
sg2404
I2401
sg2805
I2802
sg976
I973
sg320
I317
sg1902
I1899
sg3229
I3226
sg3122
I3119
sg18
I15
sg1775
I1772
sg370
I367
sg698
I695
sg2789
I2786
sg1094
I1091
sg26
I23
sg2562
I2559
sg1300
I1297
sg2736
I2733
sg690
I687
sg3302
I3299
sg985
I982
sg130
I127
sg1161
I1158
sg39
I36
sg2729
I2726
sg315
I312
sg2227
I2224
sg1540
I1537
sg1899
I1896
sg2819
I2816
sg2571
I2568
sg2055
I2052
sg2965
I2962
sg692
I689
sg2697
I2694
sg1117
I1114
sg3116
I3113
sg292
I289
sg3345
I3342
sg1450
I1447
sg2372
I2369
sg2543
I2540
sg3233
I3230
sg1182
I1179
sg480
I477
sg2915
I2912
sg3268
I3265
sg434
I431
sg1835
I1832
sg1569
I1566
sg2514
I2511
sg219
I216
sg3126
I3123
sg3318
I3315
sg1122
I1119
sg2335
I2332
sg1106
I1103
sg3377
I3374
sg2341
I2338
sg2386
I2383
sg2226
I2223
sg1370
I1367
sg2492
I2489
sg3176
I3173
sg349
I346
sg1152
I1149
sg248
I245
sg2459
I2456
sg575
I572
sg767
I764
sg3248
I3245
sg1752
I1749
sg1054
I1051
sg806
I803
sg1261
I1258
sg1588
I1585
sg1522
I1519
sg2197
I2194
sg1262
I1259
sg2887
I2884
sg2830
I2827
sg100
I97
sg597
I594
sg1954
I1951
sg3353
I3350
sg1298
I1295
sg1629
I1626
sg567
I564
sg30
I27
sg364
I361
sg2230
I2227
sg1674
I1671
sg2997
I2994
sg2840
I2837
sg967
I964
sg1157
I1154
sg749
I746
sg1143
I1140
sg2558
I2555
sg1904
I1901
sg1526
I1523
sg2999
I2996
sg1590
I1587
sg36
I33
sg1656
I1653
sg1549
I1546
sg438
I435
sg1639
I1636
sg3081
I3078
sg2301
I2298
sg2167
I2164
sg2109
I2106
sg3185
I3182
sg2541
I2538
sg3308
I3305
sg1012
I1009
sg413
I410
sg3207
I3204
sg543
I540
sg1086
I1083
sg1971
I1968
sg189
I186
sg3306
I3303
sg2454
I2451
sg2440
I2437
sg2759
I2756
sg2344
I2341
sg1228
I1225
sg116
I113
sg153
I150
sg507
I504
sg713
I710
sg2216
I2213
sg1770
I1767
sg2018
I2015
sg2337
I2334
sg1081
I1078
sg1269
I1266
sg7
I4
sg1793
I1790
sg241
I238
sg1263
I1260
sg3293
I3290
sg2673
I2670
sg982
I979
sg642
I639
sg812
I809
sg354
I351
sg1888
I1885
sg2523
I2520
sg1537
I1534
sg1464
I1461
sg1678
I1675
sg1539
I1536
sg3062
I3059
sg1724
I1721
sg142
I139
sg1810
I1807
sg3051
I3048
sg2427
I2424
sg1517
I1514
sg2154
I2151
sg708
I705
sg511
I508
sg910
I907
sg2913
I2910
sg2178
I2175
sg29
I26
sg1552
I1549
sg2444
I2441
sg1547
I1544
sg3070
I3067
sg2118
I2115
sg3010
I3007
sg1687
I1684
sg35
I32
sg108
I105
sg2400
I2397
sg1209
I1206
sg182
I179
sg1112
I1109
sg90
I87
sg2031
I2028
sg2361
I2358
sg1790
I1787
sg696
I693
sg1911
I1908
sg669
I666
sg2198
I2195
sg3344
I3341
sg1709
I1706
sg1011
I1008
sg2810
I2807
sg1422
I1419
sg1441
I1438
sg2660
I2657
sg2005
I2002
sg2985
I2982
sg2933
I2930
sg2206
I2203
sg2899
I2896
sg3276
I3273
sg1675
I1672
sg238
I235
sg1302
I1299
sg3094
I3091
sg2890
I2887
sg155
I152
sg745
I742
sg125
I122
sg1631
I1628
sg936
I933
sg1285
I1282
sg3087
I3084
sg2624
I2621
sg3341
I3338
sg2952
I2949
sg2718
I2715
sg770
I767
sg961
I958
sg1558
I1555
sg3296
I3293
sg1175
I1172
sg2858
I2855
sg721
I718
sg170
I167
sg1758
I1755
sg582
I579
sg2936
I2933
sg348
I345
sg654
I651
sg1609
I1606
sg2080
I2077
sg1437
I1434
sg96
I93
sg385
I382
sg2605
I2602
sg1394
I1391
sg1187
I1184
sg2050
I2047
sg73
I70
sg409
I406
sg706
I703
sg3155
I3152
sg1912
I1909
sg2166
I2163
sg1025
I1022
sg2917
I2914
sg858
I855
sg2052
I2049
sg3049
I3046
sg2733
I2730
sg437
I434
sg232
I229
sg2449
I2446
sg786
I783
sg986
I983
sg2271
I2268
sg2906
I2903
sg2104
I2101
sg3107
I3104
sg2867
I2864
sg3239
I3236
sg2923
I2920
sg1873
I1870
sg606
I603
sg2360
I2357
sg1501
I1498
sg2900
I2897
sg1717
I1714
sg2677
I2674
sg2087
I2084
sg2441
I2438
sg1870
I1867
sg1528
I1525
sg2305
I2302
sg1485
I1482
sg1427
I1424
sg3191
I3188
sg440
I437
sg558
I555
sg1632
I1629
sg58
I55
sg10
I7
sg2994
I2991
sg1823
I1820
sg1454
I1451
sg1047
I1044
sg3354
I3351
sg236
I233
sg1659
I1656
sg235
I232
sg540
I537
sg3301
I3298
sg2782
I2779
sg1882
I1879
sg902
I899
sg2426
I2423
sg622
I619
sg2117
I2114
sg992
I989
sg253
I250
sg2302
I2299
sg755
I752
sg1090
I1087
sg1874
I1871
sg2222
I2219
sg2332
I2329
sg2742
I2739
sg1756
I1753
sg779
I776
sg2526
I2523
sg1628
I1625
sg1167
I1164
sg3330
I3327
sg1391
I1388
sg1685
I1682
sg2878
I2875
sg1637
I1634
sg93
I90
sg1145
I1142
sg2535
I2532
sg1819
I1816
sg3274
I3271
sg210
I207
sg1421
I1418
sg2869
I2866
sg2434
I2431
sg2119
I2116
sg2369
I2366
sg815
I812
sg1431
I1428
sg3333
I3330
sg1984
I1981
sg1245
I1242
sg2182
I2179
sg893
I890
sg1892
I1889
sg2032
I2029
sg3098
I3095
sg1098
I1095
sg638
I635
sg1794
I1791
sg2469
I2466
sg1142
I1139
sg382
I379
sg537
I534
sg1348
I1345
sg2349
I2346
sg2553
I2550
sg917
I914
sg2572
I2569
sg1879
I1876
sg1905
I1902
sg842
I839
sg2265
I2262
sg676
I673
sg1210
I1207
sg254
I251
sg1948
I1945
sg2937
I2934
sg357
I354
sg1126
I1123
sg47
I44
sg957
I954
sg55
I52
sg1075
I1072
sg1337
I1334
sg1913
I1910
sg2910
I2907
sg1747
I1744
sg883
I880
sg2034
I2031
sg1570
I1567
sg533
I530
sg2623
I2620
sg395
I392
sg2758
I2755
sg2818
I2815
sg1648
I1645
sg2737
I2734
sg1650
I1647
sg485
I482
sg2061
I2058
sg94
I91
sg1448
I1445
sg639
I636
sg2155
I2152
sg1507
I1504
sg2603
I2600
sg1023
I1020
sg1538
I1535
sg1989
I1986
sg2093
I2090
sg309
I306
sg3211
I3208
sg2925
I2922
sg888
I885
sg1988
I1985
sg291
I288
sg2618
I2615
sg1116
I1113
sg3128
I3125
sg2770
I2767
sg1898
I1895
sg53
I50
sg159
I156
sg1762
I1759
sg583
I580
sg2938
I2935
sg452
I449
sg2670
I2667
sg3347
I3344
sg1042
I1039
sg2931
I2928
sg1289
I1286
sg1169
I1166
sg3158
I3155
sg1813
I1810
sg2530
I2527
sg487
I484
sg2882
I2879
sg1354
I1351
sg1803
I1800
sg355
I352
sg2081
I2078
sg2596
I2593
sg1780
I1777
sg1695
I1692
sg2891
I2888
sg2161
I2158
sg1345
I1342
sg1232
I1229
sg2809
I2806
sg2340
I2337
sg1088
I1085
sg647
I644
sg1473
I1470
sg2029
I2026
sg1824
I1821
sg2575
I2572
sg959
I956
sg754
I751
sg164
I161
sg3289
I3286
sg3355
I3352
sg1936
I1933
sg2296
I2293
sg2569
I2566
sg213
I210
sg1131
I1128
sg3322
I3319
sg657
I654
sg3093
I3090
sg1238
I1235
sg1430
I1427
sg2345
I2342
sg489
I486
sg1040
I1037
sg2746
I2743
sg1934
I1931
sg869
I866
sg1959
I1956
sg1329
I1326
sg278
I275
sg1576
I1573
sg3156
I3153
sg2363
I2360
sg416
I413
sg933
I930
sg2107
I2104
sg3179
I3176
sg1831
I1828
sg1043
I1040
sg2391
I2388
sg735
I732
sg2077
I2074
sg2135
I2132
sg1344
I1341
sg112
I109
sg1271
I1268
sg2281
I2278
sg1466
I1463
sg3153
I3150
sg3154
I3151
sg2438
I2435
sg122
I119
sg517
I514
sg451
I448
sg1041
I1038
sg3021
I3018
sg2498
I2495
sg2394
I2391
sg2914
I2911
sg560
I557
sg2067
I2064
sg701
I698
sg477
I474
sg311
I308
sg897
I894
sg2563
I2560
sg814
I811
sg825
I822
sg431
I428
sg2442
I2439
sg2518
I2515
sg666
I663
sg2315
I2312
sg2053
I2050
sg2303
I2300
sg747
I744
sg3068
I3065
sg3192
I3189
sg2512
I2509
sg2365
I2362
sg251
I248
sg1480
I1477
sg161
I158
sg490
I487
sg2868
I2865
sg2821
I2818
sg2715
I2712
sg2688
I2685
sg3003
I3000
sg3231
I3228
sg2612
I2609
sg327
I324
sg1260
I1257
sg3174
I3171
sg3042
I3039
sg2552
I2549
sg2942
I2939
sg1579
I1576
sg3208
I3205
sg2243
I2240
sg1021
I1018
sg615
I612
sg298
I295
sg79
I76
sg1848
I1845
sg820
I817
sg1909
I1906
sg694
I691
sg109
I106
sg2255
I2252
sg328
I325
sg1174
I1171
sg76
I73
sg1725
I1722
sg72
I69
sg469
I466
sg211
I208
sg152
I149
sg2274
I2271
sg458
I455
sg3243
I3240
sg1996
I1993
sg3175
I3172
sg2744
I2741
sg1812
I1809
sg3277
I3274
sg1251
I1248
sg3324
I3321
sg653
I650
sg775
I772
sg948
I945
sg1141
I1138
sg497
I494
sg508
I505
sg824
I821
sg2653
I2650
sg763
I760
sg2358
I2355
sg684
I681
sg1838
I1835
sg1505
I1502
sg380
I377
sg420
I417
sg673
I670
sg2696
I2693
sg49
I46
sg2388
I2385
sg1459
I1456
sg1201
I1198
sg2295
I2292
sg1364
I1361
sg3015
I3012
sg646
I643
sg2521
I2518
sg2489
I2486
sg441
I438
sg387
I384
sg3110
I3107
sg529
I526
sg2506
I2503
sg1564
I1561
sg1038
I1035
sg1077
I1074
sg1084
I1081
sg1670
I1667
sg2326
I2323
sg555
I552
sg44
I41
sg1492
I1489
sg3167
I3164
sg1241
I1238
sg294
I291
sg1105
I1102
sg675
I672
sg790
I787
sg1331
I1328
sg1711
I1708
sg2928
I2925
sg14
I11
sg1256
I1253
sg453
I450
sg2750
I2747
sg2796
I2793
sg352
I349
sg353
I350
sg1456
I1453
sg1865
I1862
sg2701
I2698
sg621
I618
sg3214
I3211
sg423
I420
sg2987
I2984
sg591
I588
sg1309
I1306
sg259
I256
sg1002
I999
sg1034
I1031
sg1439
I1436
sg1627
I1624
sg3364
I3361
sg3244
I3241
sg197
I194
sg398
I395
sg3223
I3220
sg1923
I1920
sg1377
I1374
sg1852
I1849
sg1035
I1032
sg1997
I1994
sg1203
I1200
sg905
I902
sg1995
I1992
sg1897
I1894
sg377
I374
sg2245
I2242
sg1740
I1737
sg226
I223
sg3023
I3020
sg727
I724
sg1381
I1378
sg2430
I2427
sg2930
I2927
sg341
I338
sg665
I662
sg682
I679
sg969
I966
sg1393
I1390
sg2088
I2085
sg48
I45
sg1550
I1547
sg658
I655
sg1385
I1382
sg707
I704
sg2920
I2917
sg3097
I3094
sg970
I967
sg1840
I1837
sg2616
I2613
sg710
I707
sg97
I94
sg1985
I1982
sg2299
I2296
sg28
I25
sg207
I204
sg1973
I1970
sg1956
I1953
sg186
I183
sg1565
I1562
sg2385
I2382
sg2863
I2860
sg720
I717
sg1957
I1954
sg3379
I3376
sg1633
I1630
sg143
I140
sg104
I101
sg467
I464
sg2004
I2001
sg1595
I1592
sg1387
I1384
sg1220
I1217
sg1868
I1865
sg584
I581
sg579
I576
sg887
I884
sg1497
I1494
sg1509
I1506
sg877
I874
sg2637
I2634
sg691
I688
sg2500
I2497
sg3367
I3364
sg92
I89
sg2710
I2707
sg442
I439
sg1216
I1213
sg2047
I2044
sg736
I733
sg2762
I2759
sg2399
I2396
sg177
I174
sg119
I116
sg163
I160
sg1000
I997
sg2658
I2655
sg3052
I3049
sg392
I389
sg2981
I2978
sg699
I696
sg2070
I2067
sg1138
I1135
sg2646
I2643
sg2726
I2723
sg2068
I2065
sg1692
I1689
sg3240
I3237
sg1849
I1846
sg633
I630
sg2781
I2778
sg1789
I1786
sg2926
I2923
sg2403
I2400
sg1599
I1596
sg1691
I1688
sg157
I154
sg133
I130
sg3133
I3130
sg3038
I3035
sg2467
I2464
sg3328
I3325
sg569
I566
sg412
I409
sg3202
I3199
sg1574
I1571
sg862
I859
sg2041
I2038
sg2415
I2412
sg576
I573
sg681
I678
sg1287
I1284
sg2504
I2501
sg2825
I2822
sg2794
I2791
sg1218
I1215
sg751
I748
sg2599
I2596
sg1645
I1642
sg384
I381
sg2785
I2782
sg317
I314
sg3053
I3050
sg1883
I1880
sg881
I878
sg913
I910
sg2714
I2711
sg3037
I3034
sg464
I461
sg2644
I2641
sg233
I230
sg3294
I3291
sg1277
I1274
sg2976
I2973
sg2508
I2505
sg731
I728
sg1965
I1962
sg1313
I1310
sg2609
I2606
sg536
I533
sg2375
I2372
sg2845
I2842
sg2466
I2463
sg2476
I2473
sg547
I544
sg1304
I1301
sg845
I842
sg1987
I1984
sg3307
I3304
sg1722
I1719
sg1295
I1292
sg388
I385
sg571
I568
sg3216
I3213
sg301
I298
sg2298
I2295
sg3220
I3217
sg1050
I1047
sg599
I596
sg1463
I1460
sg1568
I1565
sg2147
I2144
sg697
I694
sg1100
I1097
sg1303
I1300
sg1467
I1464
sg678
I675
sg1561
I1558
sg2799
I2796
sg566
I563
sg2970
I2967
sg871
I868
sg860
I857
sg2457
I2454
sg2082
I2079
sg1733
I1730
sg804
I801
sg2204
I2201
sg2635
I2632
sg77
I74
sg1186
I1183
sg716
I713
sg3019
I3016
sg167
I164
sg2582
I2579
sg1330
I1327
sg214
I211
sg1541
I1538
sg1299
I1296
sg306
I303
sg2671
I2668
sg3311
I3308
sg904
I901
sg1057
I1054
sg3250
I3247
sg1534
I1531
sg473
I470
sg2539
I2536
sg2788
I2785
sg2912
I2909
sg1324
I1321
sg3241
I3238
sg2280
I2277
sg1221
I1218
sg1156
I1153
sg1018
I1015
sg977
I974
sg114
I111
sg2350
I2347
sg1101
I1098
sg1379
I1376
sg1811
I1808
sg3255
I3252
sg978
I975
sg2692
I2689
sg1942
I1939
sg2112
I2109
sg2801
I2798
sg482
I479
sg1791
I1788
sg11
I8
sg1817
I1814
sg131
I128
sg791
I788
sg514
I511
sg949
I946
sg2392
I2389
sg903
I900
sg1222
I1219
sg1176
I1173
sg2187
I2184
sg1072
I1069
sg1713
I1710
sg3147
I3144
sg3253
I3250
sg1655
I1652
sg2643
I2640
sg685
I682
sg1683
I1680
sg752
I749
sg2638
I2635
sg2413
I2410
sg951
I948
sg127
I124
sg636
I633
sg2559
I2556
sg1962
I1959
sg340
I337
sg2971
I2968
sg1060
I1057
sg43
I40
sg154
I151
sg2191
I2188
sg861
I858
sg2030
I2027
sg3004
I3001
sg2323
I2320
sg1796
I1793
sg987
I984
sg2425
I2422
sg740
I737
sg3275
I3272
sg1374
I1371
sg3034
I3031
sg2473
I2470
sg2474
I2471
sg2297
I2294
sg2058
I2055
sg760
I757
sg89
I86
sg3348
I3345
sg400
I397
sg1690
I1687
sg556
I553
sg1858
I1855
sg255
I252
sg2547
I2544
sg1518
I1515
sg1376
I1373
sg989
I986
sg1071
I1068
sg660
I657
sg3161
I3158
sg1026
I1023
sg386
I383
sg1495
I1492
sg2978
I2975
sg1642
I1639
sg1146
I1143
sg461
I458
sg54
I51
sg2278
I2275
sg2327
I2324
sg840
I837
sg2628
I2625
sg3362
I3359
sg417
I414
sg421
I418
sg1135
I1132
sg1667
I1664
sg568
I565
sg695
I692
sg929
I926
sg1641
I1638
sg2045
I2042
sg3204
I3201
sg738
I735
sg2017
I2014
sg332
I329
sg2813
I2810
sg2922
I2919
sg1259
I1256
sg656
I653
sg321
I318
sg463
I460
sg2242
I2239
sg807
I804
sg1328
I1325
sg2257
I2254
sg2176
I2173
sg2455
I2452
sg2113
I2110
sg2542
I2539
sg2779
I2776
sg2232
I2229
sg513
I510
sg2800
I2797
sg2037
I2034
sg1940
I1937
sg661
I658
sg2838
I2835
sg2967
I2964
sg2619
I2616
sg2252
I2249
sg1274
I1271
sg2339
I2336
sg2560
I2557
sg1748
I1745
sg2556
I2553
sg853
I850
sg2707
I2704
sg284
I281
sg1493
I1490
sg2071
I2068
sg2201
I2198
sg2648
I2645
sg1966
I1963
sg650
I647
sg1275
I1272
sg753
I750
sg1158
I1155
sg2485
I2482
sg1732
I1729
sg778
I775
sg1862
I1859
sg3286
I3283
sg504
I501
sg303
I300
sg2669
I2666
sg984
I981
sg2165
I2162
sg123
I120
sg2406
I2403
sg1635
I1632
sg2941
I2938
sg37
I34
sg906
I903
sg2960
I2957
sg3259
I3256
sg425
I422
sg1479
I1476
sg1183
I1180
sg1333
I1330
sg570
I567
sg124
I121
sg1046
I1043
sg1960
I1957
sg3148
I3145
sg1340
I1337
sg2254
I2251
sg577
I574
sg1945
I1942
sg175
I172
sg1664
I1661
sg2507
I2504
sg1900
I1897
sg2471
I2468
sg594
I591
sg891
I888
sg2493
I2490
sg1816
I1813
sg2786
I2783
sg1676
I1673
sg838
I835
sg2043
I2040
sg3127
I3124
sg1927
I1924
sg1943
I1940
sg1341
I1338
sg2989
I2986
sg1276
I1273
sg334
I331
sg2593
I2590
sg946
I943
sg270
I267
sg994
I991
sg841
I838
sg1545
I1542
sg1443
I1440
sg2886
I2883
sg2826
I2823
sg2234
I2231
sg2972
I2969
sg2766
I2763
sg2188
I2185
sg2536
I2533
sg1384
I1381
sg793
I790
sg960
I957
sg1078
I1075
sg165
I162
sg372
I369
sg997
I994
sg244
I241
sg2193
I2190
sg1418
I1415
sg3177
I3174
sg2089
I2086
sg1513
I1510
sg2564
I2561
sg799
I796
sg1672
I1669
sg2025
I2022
sg2615
I2612
sg630
I627
sg2812
I2809
sg1308
I1305
sg1244
I1241
sg1566
I1563
sg2853
I2850
sg835
I832
sg1113
I1110
sg2381
I2378
sg2397
I2394
sg1264
I1261
sg2846
I2843
sg1626
I1623
sg1557
I1554
sg2152
I2149
sg2211
I2208
sg552
I549
sg1037
I1034
sg2787
I2784
sg953
I950
sg194
I191
sg475
I472
sg833
I830
sg399
I396
sg1993
I1990
sg1665
I1662
sg1425
I1422
sg3016
I3013
sg2233
I2230
sg373
I370
sg2024
I2021
sg1419
I1416
sg1845
I1842
sg2550
I2547
sg3140
I3137
sg1162
I1159
sg2006
I2003
sg3299
I3296
sg2015
I2012
sg2411
I2408
sg2792
I2789
sg1891
I1888
sg2980
I2977
sg1739
I1736
sg2021
I2018
sg494
I491
sg732
I729
sg758
I755
sg737
I734
sg659
I656
sg2062
I2059
sg1779
I1776
sg397
I394
sg2578
I2575
sg393
I390
sg1991
I1988
sg1125
I1122
sg422
I419
sg3159
I3156
sg1211
I1208
sg2223
I2220
sg3224
I3221
sg1918
I1915
sg1248
I1245
sg1729
I1726
sg476
I473
sg3215
I3212
sg1577
I1574
sg1343
I1340
sg1760
I1757
sg1411
I1408
sg3108
I3105
sg75
I72
sg247
I244
sg796
I793
sg206
I203
sg852
I849
sg1382
I1379
sg2816
I2813
sg183
I180
sg3129
I3126
sg1734
I1731
sg634
I631
sg895
I892
sg3315
I3312
sg734
I731
sg277
I274
sg3372
I3369
sg2704
I2701
sg1992
I1989
sg1346
I1343
sg1634
I1631
sg2712
I2709
sg2680
I2677
sg1356
I1353
sg1901
I1898
sg1436
I1433
sg1983
I1980
sg1426
I1423
sg126
I123
sg886
I883
sg1491
I1488
sg2745
I2742
sg3222
I3219
sg1315
I1312
sg3194
I3191
sg3221
I3218
sg273
I270
sg876
I873
sg993
I990
sg781
I778
sg1581
I1578
sg1089
I1086
sg2481
I2478
sg3257
I3254
sg2509
I2506
sg1712
I1709
sg2532
I2529
sg266
I263
sg502
I499
sg1548
I1545
sg1527
I1524
sg446
I443
sg2246
I2243
sg2374
I2371
sg3339
I3336
sg1095
I1092
sg2776
I2773
sg1311
I1308
sg2079
I2076
sg590
I587
sg668
I665
sg200
I197
sg1586
I1583
sg8
I5
sg2815
I2812
sg2239
I2236
sg595
I592
sg1721
I1718
sg784
I781
sg750
I747
sg2892
I2889
sg314
I311
sg3195
I3192
sg830
I827
sg498
I495
sg2120
I2117
sg1413
I1410
sg2590
I2587
sg1834
I1831
sg1759
I1756
sg424
I421
sg2734
I2731
sg3205
I3202
sg363
I360
sg672
I669
sg520
I517
sg2666
I2663
sg626
I623
sg512
I509
sg680
I677
sg1039
I1036
sg1137
I1134
sg643
I640
sg1839
I1836
sg771
I768
sg2371
I2368
sg2170
I2167
sg488
I485
sg1314
I1311
sg1390
I1387
sg2639
I2636
sg2757
I2754
sg405
I402
sg2100
I2097
sg1860
I1857
sg2309
I2306
sg2767
I2764
sg2378
I2375
sg2540
I2537
sg944
I941
sg271
I268
sg624
I621
sg1396
I1393
sg1128
I1125
sg3273
I3270
sg1575
I1572
sg1744
I1741
sg1109
I1106
sg1818
I1815
sg2240
I2237
sg1359
I1356
sg286
I283
sg800
I797
sg2428
I2425
sg1082
I1079
sg263
I260
sg338
I335
sg148
I145
sg265
I262
sg1246
I1243
sg13
I10
sg818
I815
sg1118
I1115
sg865
I862
sg146
I143
sg2401
I2398
sg3380
I3377
sg1484
I1481
sg2724
I2721
sg2268
I2265
sg1615
I1612
sg3048
I3045
sg2144
I2141
sg1941
I1938
sg802
I799
sg2839
I2836
sg973
I970
sg645
I642
sg3310
I3307
sg2159
I2156
sg1716
I1713
sg2549
I2546
sg3193
I3190
sg1357
I1354
sg1938
I1935
sg368
I365
sg299
I296
sg67
I64
sg2687
I2684
sg493
I490
sg1697
I1694
sg553
I550
sg3272
I3269
sg342
I339
sg3050
I3047
sg1563
I1560
sg1349
I1346
sg2515
I2512
sg367
I364
sg3283
I3280
sg3096
I3093
sg2597
I2594
sg2664
I2661
sg447
I444
sg2720
I2717
sg1920
I1917
sg3265
I3262
sg2192
I2189
sg2904
I2901
sg218
I215
sg3118
I3115
sg113
I110
sg1004
I1001
sg198
I195
sg1068
I1065
sg2310
I2307
sg3363
I3360
sg2098
I2095
sg3329
I3326
sg2676
I2673
sg1130
I1127
sg2719
I2716
sg1003
I1000
sg1200
I1197
sg1449
I1446
sg780
I777
sg2769
I2766
sg1994
I1991
sg147
I144
sg2338
I2335
sg1281
I1278
sg551
I548
sg302
I299
sg2584
I2581
sg509
I506
sg2883
I2880
sg2393
I2390
sg573
I570
sg2366
I2363
sg826
I823
sg2783
I2780
sg589
I586
sg3225
I3222
sg3027
I3024
sg1498
I1495
sg250
I247
sg2723
I2720
sg9
I6
sg2998
I2995
sg625
I622
sg1353
I1350
sg679
I676
sg3105
I3102
sg1180
I1177
sg965
I962
sg1961
I1958
sg2264
I2261
sg2094
I2091
sg1129
I1126
sg1233
I1230
sg592
I589
sg2453
I2450
sg859
I856
sg3172
I3169
sg1434
I1431
sg2874
I2871
sg1323
I1320
sg2131
I2128
sg3291
I3288
sg1170
I1167
sg2451
I2448
sg3141
I3138
sg2368
I2365
sg454
I451
sg663
I660
sg2698
I2695
sg288
I285
sg2199
I2196
sg1714
I1711
sg2557
I2554
sg1252
I1249
sg2520
I2517
sg1477
I1474
sg257
I254
sg2370
I2367
sg1149
I1146
sg1022
I1019
sg1842
I1839
sg45
I42
sg1247
I1244
sg145
I142
sg2122
I2119
sg2443
I2440
sg2652
I2649
sg401
I398
sg21
I18
sg223
I220
sg2659
I2656
sg229
I226
sg1134
I1131
sg2205
I2202
sg2003
I2000
sg2435
I2432
sg3327
I3324
sg1069
I1066
sg2567
I2564
sg120
I117
sg805
I802
sg2709
I2706
sg3046
I3043
sg3180
I3177
sg3254
I3251
sg1808
I1805
sg2944
I2941
sg2063
I2060
sg2356
I2353
sg882
I879
sg1746
I1743
sg2866
I2863
sg1662
I1659
sg1503
I1500
sg3131
I3128
sg2903
I2900
sg486
I483
sg1776
I1773
sg1719
I1716
sg2907
I2904
sg2410
I2407
sg2773
I2770
sg180
I177
sg726
I723
sg1666
I1663
sg3262
I3259
sg1280
I1277
sg2478
I2475
sg3130
I3127
sg1804
I1801
sg1486
I1483
sg1998
I1995
sg1682
I1679
sg305
I302
sg1399
I1396
sg635
I632
sg3008
I3005
sg1969
I1966
sg3091
I3088
sg1764
I1761
sg2012
I2009
sg52
I49
sg2291
I2288
sg719
I716
sg450
I447
sg744
I741
sg2601
I2598
sg587
I584
sg2672
I2669
sg1322
I1319
sg1797
I1794
sg2790
I2787
sg2328
I2325
sg1144
I1141
sg242
I239
sg1951
I1948
sg890
I887
sg1799
I1796
sg2705
I2702
sg1355
I1352
sg335
I332
sg609
I606
sg2108
I2105
sg2703
I2700
sg2566
I2563
sg1915
I1912
sg1173
I1170
sg1591
I1588
sg3320
I3317
sg1699
I1696
sg3022
I3019
sg1767
I1764
sg964
I961
sg3005
I3002
sg1546
I1543
sg2683
I2680
sg2902
I2899
sg2287
I2284
sg57
I54
sg1598
I1595
sg2035
I2032
sg474
I471
sg912
I909
sg3349
I3346
sg3178
I3175
sg542
I539
sg1445
I1442
sg174
I171
sg2817
I2814
sg1529
I1526
sg3039
I3036
sg1358
I1355
sg402
I399
sg25
I22
sg78
I75
sg1225
I1222
sg2870
I2867
sg811
I808
sg2502
I2499
sg1701
I1698
sg1822
I1819
sg85
I82
sg631
I628
sg2408
I2405
sg2894
I2891
sg2828
I2825
sg38
I35
sg848
I845
sg419
I416
sg484
I481
sg411
I408
sg2200
I2197
sg1885
I1882
sg940
I937
sg1829
I1826
sg3089
I3086
sg1230
I1227
sg962
I959
sg2721
I2718
sg2940
I2937
sg63
I60
sg1617
I1614
sg2674
I2671
sg2895
I2892
sg2725
I2722
sg1953
I1950
sg3011
I3008
sg2330
I2327
sg641
I638
sg1855
I1852
sg3013
I3010
sg3326
I3323
sg1625
I1622
sg3069
I3066
sg2412
I2409
sg1494
I1491
sg2143
I2140
sg2802
I2799
sg908
I905
sg846
I843
sg2993
I2990
sg2417
I2414
sg2876
I2873
sg2592
I2589
sg24
I21
sg782
I779
sg3031
I3028
sg2496
I2493
sg2689
I2686
sg1179
I1176
sg366
I363
sg2224
I2221
sg209
I206
sg1738
I1735
sg934
I931
sg41
I38
sg350
I347
sg2445
I2442
sg1415
I1412
sg2416
I2413
sg524
I521
sg528
I525
sg3073
I3070
sg2480
I2477
sg563
I560
sg1217
I1214
sg1597
I1594
sg3072
I3069
sg2306
I2303
sg483
I480
sg1910
I1907
sg565
I562
sg1544
I1541
sg3316
I3313
sg1907
I1904
sg1266
I1263
sg1589
I1586
sg1531
I1528
sg1908
I1905
sg1338
I1335
sg742
I739
sg249
I246
sg879
I876
sg3219
I3216
sg748
I745
sg693
I690
sg776
I773
sg2072
I2069
sg521
I518
sg2784
I2781
sg2225
I2222
sg809
I806
sg2407
I2404
sg465
I462
sg203
I200
sg2292
I2289
sg1339
I1336
sg2916
I2913
sg792
I789
sg455
I452
sg1559
I1556
sg3321
I3318
sg1677
I1674
sg1319
I1316
sg614
I611
sg516
I513
sg17
I14
sg3171
I3168
sg652
I649
sg1877
I1874
sg1184
I1181
sg1482
I1479
sg1504
I1501
sg1502
I1499
sg1310
I1307
sg2180
I2177
sg1005
I1002
sg279
I276
sg1172
I1169
sg1045
I1042
sg195
I192
sg1735
I1732
sg2684
I2681
sg1474
I1471
sg3190
I3187
sg2490
I2487
sg1519
I1516
sg1062
I1059
sg296
I293
sg339
I336
sg1458
I1455
sg3313
I3310
sg619
I616
sg2322
I2319
sg1914
I1911
sg2525
I2522
sg1227
I1224
sg2679
I2676
sg326
I323
sg1802
I1799
sg308
I305
sg670
I667
sg2468
I2465
sg2625
I2622
sg718
I715
sg1392
I1389
sg2465
I2462
sg237
I234
sg2570
I2567
sg2693
I2690
sg3077
I3074
sg1551
I1548
sg1602
I1599
sg3334
I3331
sg958
I955
sg2497
I2494
sg2905
I2902
sg2667
I2664
sg1067
I1064
sg2551
I2548
sg915
I912
sg918
I915
sg234
I231
sg3120
I3117
sg2433
I2430
sg1352
I1349
sg834
I831
sg1140
I1137
sg1061
I1058
sg2565
I2562
sg3164
I3161
sg378
I375
sg2189
I2186
sg1294
I1291
sg1661
I1658
sg2148
I2145
sg2321
I2318
sg1085
I1082
sg371
I368
sg2177
I2174
sg996
I993
sg336
I333
sg1727
I1724
sg3054
I3051
sg65
I62
sg1442
I1439
sg3366
I3363
sg2083
I2080
sg2859
I2856
sg1922
I1919
sg426
I423
sg1975
I1972
sg3030
I3027
sg2140
I2137
sg1608
I1605
sg2308
I2305
sg1706
I1703
sg932
I929
sg2479
I2476
sg2568
I2565
sg1652
I1649
sg2848
I2845
sg1624
I1621
sg2181
I2178
sg1475
I1472
sg1567
I1564
sg1007
I1004
sg1843
I1840
sg150
I147
sg1446
I1443
sg2650
I2647
sg979
I976
sg1967
I1964
sg746
I743
sg3055
I3052
sg176
I173
sg3309
I3306
sg3006
I3003
sg765
I762
sg839
I836
sg926
I923
sg337
I334
sg2066
I2063
sg2472
I2469
sg705
I702
sg2402
I2399
sg1807
I1804
sg1930
I1927
sg428
I425
sg2007
I2004
sg1010
I1007
sg2717
I2714
sg1219
I1216
sg2764
I2761
sg2284
I2281
sg2668
I2665
sg2002
I1999
sg2111
I2108
sg3376
I3373
sg2752
I2749
sg2343
I2340
sg3076
I3073
sg3199
I3196
sg3163
I3160
sg70
I67
sg963
I960
sg168
I165
sg3247
I3244
sg1254
I1251
sg1653
I1650
sg1826
I1823
sg3092
I3089
sg19
I16
sg1181
I1178
sg2754
I2751
sg1647
I1644
sg158
I155
sg2753
I2750
sg396
I393
sg173
I170
sg2237
I2234
sg383
I380
sg3381
I3378
sg522
I519
sg2051
I2048
sg1288
I1285
sg2743
I2740
sg3125
I3122
sg3351
I3348
sg711
I708
sg3115
I3112
sg3285
I3282
sg1974
I1971
sg2283
I2280
sg1515
I1512
sg2793
I2790
sg2555
I2552
sg256
I253
sg885
I882
sg3230
I3227
sg2157
I2154
sg1619
I1616
sg3035
I3032
sg1325
I1322
sg1766
I1763
sg1270
I1267
sg541
I538
sg414
I411
sg2806
I2803
sg2169
I2166
sg381
I378
sg617
I614
sg2078
I2075
sg2896
I2893
sg3304
I3301
sg3135
I3132
sg390
I387
sg2595
I2592
sg101
I98
sg1679
I1676
sg181
I178
sg2150
I2147
sg2763
I2760
sg3288
I3285
sg2056
I2053
sg351
I348
sg2001
I1998
sg1048
I1045
sg3237
I3234
sg1316
I1313
sg611
I608
sg1326
I1323
sg1560
I1557
sg3270
I3267
sg3033
I3030
sg1020
I1017
sg990
I987
sg2798
I2795
sg3375
I3372
sg2756
I2753
sg2706
I2703
sg1947
I1944
sg3100
I3097
sg3312
I3309
sg683
I680
sg1049
I1046
sg1237
I1234
sg1438
I1435
sg2461
I2458
sg1520
I1517
sg3121
I3118
sg2436
I2433
sg2872
I2869
sg628
I625
sg3251
I3248
sg3228
I3225
sg1535
I1532
sg2675
I2672
sg1593
I1590
sg813
I810
sg1362
I1359
sg3258
I3255
sg2259
I2256
sg1127
I1124
sg3256
I3253
sg2320
I2317
sg2598
I2595
sg627
I624
sg1488
I1485
sg1406
I1403
sg1749
I1746
sg1148
I1145
sg132
I129
sg2276
I2273
sg276
I273
sg3036
I3033
sg1832
I1829
sg2049
I2046
sg1429
I1426
sg2316
I2313
sg1223
I1220
sg2219
I2216
sg916
I913
sg2279
I2276
sg2898
I2895
sg2261
I2258
sg2946
I2943
sg2977
I2974
sg2823
I2820
sg2804
I2801
sg1412
I1409
sg1881
I1878
sg1166
I1163
sg2286
I2283
sg1079
I1076
sg1921
I1918
sg2984
I2981
sg3358
I3355
sg162
I159
sg287
I284
sg2040
I2037
sg2645
I2642
sg1571
I1568
sg2160
I2157
sg2953
I2950
sg2101
I2098
sg2803
I2800
sg2208
I2205
sg3104
I3101
sg50
I47
sg1553
I1550
sg2580
I2577
sg2711
I2708
sg819
I816
sg2862
I2859
sg1863
I1860
sg1720
I1717
sg492
I489
sg1389
I1386
sg3249
I3246
sg1958
I1955
sg2827
I2824
sg2174
I2171
sg1649
I1646
sg2713
I2710
sg1554
I1551
sg2606
I2603
sg1686
I1683
sg448
I445
sg1066
I1063
sg1805
I1802
sg2613
I2610
sg1327
I1324
sg2835
I2832
sg875
I872
sg581
I578
sg2829
I2826
sg2722
I2719
sg56
I53
sg2256
I2253
sg1478
I1475
sg554
I551
sg272
I269
sg1197
I1194
sg1562
I1559
sg2576
I2573
sg1931
I1928
sg404
I401
sg1555
I1552
sg2137
I2134
sg1853
I1850
sg2319
I2316
sg1643
I1640
sg1867
I1864
sg1249
I1246
sg785
I782
sg1784
I1781
sg1371
I1368
sg1702
I1699
sg662
I659
sg1380
I1377
sg2837
I2834
sg1115
I1112
sg822
I819
sg1397
I1394
sg945
I942
sg3186
I3183
sg1741
I1738
sg1821
I1818
sg610
I607
sg1056
I1053
sg1743
I1740
sg1401
I1398
sg2379
I2376
sg1689
I1686
sg829
I826
sg2304
I2301
sg3373
I3370
sg166
I163
sg68
I65
sg3169
I3166
sg1828
I1825
sg2958
I2955
sg2537
I2534
sg151
I148
sg1091
I1088
sg324
I321
sg2738
I2735
sg3139
I3136
sg2811
I2808
sg1607
I1604
sg3058
I3055
sg2464
I2461
sg1782
I1779
sg2856
I2853
sg202
I199
sg1737
I1734
sg2929
I2926
sg1452
I1449
sg1029
I1026
sg111
I108
sg1777
I1774
sg1512
I1509
sg983
I980
sg3278
I3275
sg1279
I1276
sg115
I112
sg2065
I2062
sg466
I463
sg640
I637
sg1119
I1116
sg2277
I2274
sg1036
I1033
sg2511
I2508
sg3009
I3006
sg2355
I2352
sg262
I259
sg2447
I2444
sg1878
I1875
sg2732
I2729
sg22
I19
sg2452
I2449
sg1772
I1769
sg403
I400
sg3319
I3316
sg2171
I2168
sg274
I271
sg546
I543
sg549
I546
sg870
I867
sg1188
I1185
sg2376
I2373
sg762
I759
sg3112
I3109
sg3095
I3092
sg1444
I1441
sg2348
I2345
sg2351
I2348
sg3218
I3215
sg459
I456
sg1136
I1133
sg3000
I2997
sg1726
I1723
sg16
I13
sg2751
I2748
sg1199
I1196
sg2202
I2199
sg2654
I2651
sg149
I146
sg971
I968
sg2852
I2849
sg1290
I1287
sg3189
I3186
sg1939
I1936
sg3025
I3022
sg952
I949
sg3368
I3365
sg3234
I3231
sg2331
I2328
sg2604
I2601
sg268
I265
sg1234
I1231
sg304
I301
sg3290
I3287
sg2548
I2545
sg86
I83
sg1185
I1182
sg1402
I1399
sg2979
I2976
sg2158
I2155
sg3261
I3258
sg3012
I3009
sg774
I771
sg2585
I2582
sg1253
I1250
sg2423
I2420
sg1622
I1619
sg1177
I1174
sg2510
I2507
sg3200
I3197
sg1405
I1402
sg2949
I2946
sg2871
I2868
sg2429
I2426
sg2656
I2653
sg2439
I2436
sg2633
I2630
sg2780
I2777
sg1917
I1914
sg2614
I2611
sg1469
I1466
sg1373
I1370
sg2694
I2691
sg596
I593
sg2217
I2214
sg2357
I2354
sg867
I864
sg866
I863
sg479
I476
sg343
I340
sg1977
I1974
sg1814
I1811
sg1972
I1969
sg3336
I3333
sg1296
I1293
sg40
I37
sg2184
I2181
sg1705
I1702
sg2844
I2841
sg2185
I2182
sg51
I48
sg896
I893
sg2288
I2285
sg1728
I1725
sg1530
I1527
sg2777
I2774
sg1919
I1916
sg598
I595
sg620
I617
sg2409
I2406
sg3090
I3087
sg671
I668
sg2690
I2687
sg1099
I1096
sg2649
I2646
sg2258
I2255
sg2822
I2819
sg258
I255
sg722
I719
sg3101
I3098
sg2023
I2020
sg2854
I2851
sg2561
I2558
sg1278
I1275
sg1763
I1760
sg1753
I1750
sg922
I919
sg2074
I2071
sg664
I661
sg3083
I3080
sg128
I125
sg2968
I2965
sg1783
I1780
sg607
I604
sg1800
I1797
sg1053
I1050
sg2950
I2947
sg2833
I2830
sg655
I652
sg3082
I3079
sg1404
I1401
sg2097
I2094
sg1754
I1751
sg1612
I1609
sg2861
I2858
sg3078
I3075
sg1841
I1838
sg433
I430
sg1542
I1539
sg2136
I2133
sg204
I201
sg1990
I1987
sg2260
I2257
sg2275
I2272
sg1242
I1239
sg519
I516
sg1837
I1834
sg1742
I1739
sg99
I96
sg2791
I2788
sg1875
I1872
sg2229
I2226
sg1409
I1406
sg1668
I1665
sg118
I115
sg715
I712
sg1773
I1770
sg919
I916
sg632
I629
sg2574
I2571
sg2127
I2124
sg3114
I3111
sg612
I609
sg1014
I1011
sg1864
I1861
sg2533
I2530
sg2727
I2724
sg1510
I1507
sg345
I342
sg15
I12
sg1952
I1949
sg3382
I3379
sg1935
I1932
sg1673
I1670
sg140
I137
sg1395
I1392
sg1896
I1893
sg2333
I2330
sg185
I182
sg1618
I1615
sg2387
I2384
sg2943
I2940
sg766
I763
sg2600
I2597
sg293
I290
sg545
I542
sg1926
I1923
sg2213
I2210
sg1282
I1279
sg2179
I2176
sg2988
I2985
sg1787
I1784
sg943
I940
sg2911
I2908
sg868
I865
sg3029
I3026
sg2945
I2942
sg2039
I2036
sg1017
I1014
sg844
I841
sg1059
I1056
sg3337
I3334
sg3271
I3268
sg227
I224
sg3018
I3015
sg2060
I2057
sg837
I834
sg843
I840
sg2947
I2944
sg2627
I2624
sg1031
I1028
sg2662
I2659
sg2897
I2894
sg874
I871
sg588
I585
sg2513
I2510
sg3085
I3082
sg1433
I1430
sg1215
I1212
sg2761
I2758
sg1669
I1666
sg2681
I2678
sg884
I881
sg2996
I2993
sg2969
I2966
sg2995
I2992
sg855
I852
sg2962
I2959
sg1250
I1247
sg914
I911
sg3269
I3266
sg2992
I2989
sg2102
I2099
sg974
I971
sg1745
I1742
sg1189
I1186
sg1933
I1930
sg1765
I1762
sg1851
I1848
sg2142
I2139
sg1006
I1003
sg797
I794
sg2196
I2193
sg74
I71
sg939
I936
sg3287
I3284
sg2325
I2322
sg1195
I1192
sg2354
I2351
sg2141
I2138
sg156
I153
sg2610
I2607
sg2934
I2931
sg1859
I1856
sg2414
I2411
sg2836
I2833
sg3246
I3243
sg1465
I1462
sg1168
I1165
sg346
I343
sg2626
I2623
sg580
I577
sg1388
I1385
sg2462
I2459
sg2591
I2588
sg1212
I1209
sg2238
I2235
sg700
I697
sg3198
I3195
sg1224
I1221
sg889
I886
sg246
I243
sg394
I391
sg445
I442
sg950
I947
sg1073
I1070
sg1461
I1458
sg988
I985
sg3338
I3335
sg2396
I2393
sg2450
I2447
sg2359
I2356
sg2175
I2172
sg1499
I1496
sg955
I952
sg260
I257
sg928
I925
sg310
I307
sg2059
I2056
sg2121
I2118
sg432
I429
sg2641
I2638
sg562
I559
sg648
I645
sg892
I889
sg1366
I1363
sg199
I196
sg457
I454
sg3323
I3320
sg2324
I2321
sg1955
I1952
sg3361
I3358
sg1769
I1766
sg1944
I1941
sg2983
I2980
sg307
I304
sg1306
I1303
sg1165
I1162
sg2538
I2535
sg2156
I2153
sg2847
I2844
sg1375
I1372
sg1398
I1395
sg2149
I2146
sg999
I996
sg2973
I2970
sg898
I895
sg172
I169
sg2503
I2500
sg981
I978
sg3238
I3235
sg743
I740
sg1420
I1417
sg1363
I1360
sg1768
I1765
sg1708
I1705
sg2611
I2608
sg2974
I2971
sg2909
I2906
sg391
I388
sg3162
I3159
sg991
I988
sg1064
I1061
sg3145
I3142
sg2095
I2092
sg379
I376
sg1462
I1459
sg410
I407
sg677
I674
sg1700
I1697
sg2251
I2248
sg1155
I1152
sg3040
I3037
sg601
I598
sg515
I512
sg2774
I2771
sg759
I756
sg87
I84
sg1206
I1203
sg2842
I2839
sg2708
I2705
sg2091
I2088
sg2860
I2857
sg995
I992
sg318
I315
sg2964
I2961
sg3043
I3040
sg1928
I1925
sg1640
I1637
sg2889
I2886
sg205
I202
sg1532
I1529
sg285
I282
sg3314
I3311
sg667
I664
sg2589
I2586
sg2020
I2017
sg1159
I1156
sg1424
I1421
sg557
I554
sg178
I175
sg1798
I1795
sg2267
I2264
sg2110
I2107
sg325
I322
sg1051
I1048
sg2932
I2929
sg323
I320
sg2214
I2211
sg1556
I1553
sg2528
I2525
sg972
I969
sg798
I795
sg2519
I2516
sg2730
I2727
sg389
I386
sg856
I853
sg2919
I2916
sg2621
I2618
sg3113
I3110
sg854
I851
sg2057
I2054
sg2395
I2392
sg2632
I2629
sg2044
I2041
sg1506
I1503
sg2266
I2263
sg2586
I2583
sg2016
I2013
sg408
I405
sg1795
I1792
sg1487
I1484
sg1523
I1520
sg430
I427
sg443
I440
sg1604
I1601
sg1292
I1289
sg921
I918
sg2116
I2113
sg1447
I1444
sg789
I786
sg2529
I2526
sg436
I433
sg538
I535
sg252
I249
sg3360
I3357
sg3245
I3242
sg1063
I1060
sg1432
I1429
sg741
I738
sg733
I730
sg2054
I2051
sg3064
I3061
sg2115
I2112
sg2760
I2757
sg470
I467
sg535
I532
sg2139
I2136
sg1400
I1397
sg2269
I2266
sg3138
I3135
sg1107
I1104
sg1916
I1913
sg2249
I2246
sg221
I218
sg1999
I1996
sg712
I709
sg2228
I2225
sg3103
I3100
sg816
I813
sg506
I503
sg3350
I3347
sg1884
I1881
sg2573
I2570
sg1932
I1929
sg2220
I2217
sg608
I605
sg572
I569
sg3166
I3163
sg3111
I3108
sg2908
I2905
sg1408
I1405
sg3369
I3366
sg1601
I1598
sg769
I766
sg187
I184
sg2772
I2769
sg1347
I1344
sg1087
I1084
sg2026
I2023
sg2873
I2870
sg2636
I2633
sg2090
I2087
sg1097
I1094
sg2685
I2682
sg1239
I1236
sg1455
I1452
sg1663
I1660
sg3187
I3184
sg2483
I2480
sg3014
I3011
sg2203
I2200
sg2146
I2143
sg269
I266
sg1190
I1187
sg2608
I2605
sg1033
I1030
sg2076
I2073
sg3044
I3041
sg2195
I2192
sg1258
I1255
sg1204
I1201
sg2577
I2574
sg525
I522
sg1830
I1827
sg91
I88
sg427
I424
sg1265
I1262
sg1139
I1136
sg2463
I2460
sg3213
I3210
sg3357
I3354
sg2491
I2488
sg828
I825
sg1890
I1887
sg3080
I3077
sg739
I736
sg3197
I3194
sg803
I800
sg1638
I1635
sg1751
I1748
sg2477
I2474
sg478
I475
sg82
I79
sg1543
I1540
sg295
I292
sg1788
I1785
sg561
I558
sg3342
I3339
sg1027
I1024
sg80
I77
sg2640
I2637
sg920
I917
sg3173
I3170
sg110
I107
sg3137
I3134
sg435
I432
sg280
I277
sg532
I529
sg2982
I2979
sg62
I59
sg2748
I2745
sg1369
I1366
sg1257
I1254
sg2186
I2183
sg2602
I2599
sg1968
I1965
sg179
I176
sg801
I798
sg1856
I1853
sg1696
I1693
sg3235
I3232
sg2647
I2644
sg2019
I2016
sg1704
I1701
sg2544
I2541
sg1416
I1413
sg503
I500
sg1417
I1414
sg1481
I1478
sg3284
I3281
sg1093
I1090
sg1178
I1175
sg2824
I2821
sg836
I833
sg2951
I2948
sg491
I488
sg1584
I1581
sg444
I441
sg1451
I1448
sg231
I228
sg980
I977
sg1008
I1005
sg810
I807
sg1924
I1921
sg2961
I2958
sg931
I928
sg530
I527
sg3152
I3149
sg602
I599
sg1976
I1973
sg2488
I2485
sg857
I854
sg193
I190
sg134
I131
sg1710
I1707
sg1205
I1202
sg821
I818
sg2749
I2746
sg1894
I1891
sg2290
I2287
sg925
I922
sg761
I758
sg3102
I3099
sg2215
I2212
sg12
I9
sg817
I814
sg1698
I1695
sg2009
I2006
sg98
I95
sg548
I545
sg1611
I1608
sg1681
I1678
sg2884
I2881
sg878
I875
sg2516
I2513
sg968
I965
sg3075
I3072
sg724
I721
sg333
I330
sg42
I39
sg2747
I2744
sg1578
I1575
sg629
I626
sg2918
I2915
sg3184
I3181
sg2739
I2736
sg975
I972
sg1731
I1728
sg2129
I2126
sg2253
I2250
sg215
I212
sg1986
I1983
sg2247
I2244
sg267
I264
sg228
I225
sg3099
I3096
sg1231
I1228
sg2657
I2654
sg2318
I2315
sg714
I711
sg2700
I2697
sg2448
I2445
sg2880
I2877
sg3303
I3300
sg1361
I1358
sg1596
I1593
sg1979
I1976
sg1982
I1979
sg1460
I1457
sg1850
I1847
sg2011
I2008
sg1583
I1580
sg787
I784
sg1533
I1530
sg2456
I2453
sg2661
I2658
sg1383
I1380
sg2362
I2359
sg3242
I3239
sg456
I453
sg319
I316
sg518
I515
sg1820
I1817
sg872
I869
sg2398
I2395
sg3227
I3224
sg2771
I2768
sg2954
I2951
sg1124
I1121
sg1815
I1812
sg3264
I3261
sg3340
I3337
sg2579
I2576
sg1350
I1347
sg1730
I1727
sg208
I205
sg2162
I2159
sg1623
I1620
sg2132
I2129
sg2588
I2585
sg2699
I2696
sg704
I701
sg849
I846
sg1321
I1318
sg1147
I1144
sg3356
I3353
sg3188
I3185
sg3263
I3260
sg1103
I1100
sg2126
I2123
sg3183
I3180
sg191
I188
sg1660
I1657
sg2695
I2692
sg2420
I2417
sg2022
I2019
sg3134
I3131
sg2263
I2260
sg1580
I1577
sg135
I132
sg1946
I1943
sg2424
I2421
sg1496
I1493
sg225
I222
sg3151
I3148
sg3059
I3056
sg1267
I1264
sg330
I327
sg3206
I3203
sg527
I524
sg1102
I1099
sg460
I457
sg2885
I2882
sg3181
I3178
sg1616
I1613
sg2282
I2279
sg1703
I1700
sg1827
I1824
sg1372
I1369
sg2702
I2699
sg1044
I1041
sg2033
I2030
sg2486
I2483
sg1572
I1569
sg564
I561
sg2879
I2876
sg3292
I3289
sg1192
I1189
sg462
I459
sg3032
I3029
sg1981
I1978
sg764
I761
sg1521
I1518
sg3074
I3071
sg1208
I1205
sg347
I344
sg2948
I2945
sg2311
I2308
sg2422
I2419
sg823
I820
sg1524
I1521
sg1307
I1304
sg1150
I1147
sg1423
I1420
sg1013
I1010
sg2346
I2343
sg3026
I3023
sg2849
I2846
sg201
I198
sg1055
I1052
sg501
I498
sg1001
I998
sg2731
I2728
sg2042
I2039
sg585
I582
sg850
I847
sg1273
I1270
sg1052
I1049
sg3142
I3139
sg2272
I2269
sg1194
I1191
sg240
I237
sg3203
I3200
sg686
I683
sg5
I2
sg2027
I2024
sg3123
I3120
sg31
I28
sg2125
I2122
sg224
I221
sg3060
I3057
sg3317
I3314
sg2099
I2096
sg196
I193
sg2728
I2725
sg1151
I1148
sg1318
I1315
sg129
I126
sg2651
I2648
sg1585
I1582
sg1378
I1375
sg851
I848
sg1651
I1648
sg415
I412
sg2183
I2180
sg2367
I2364
sg873
I870
sg3065
I3062
sg1472
I1469
sg2210
I2207
sg2218
I2215
sg2036
I2033
sg651
I648
sg2851
I2848
sg909
I906
sg1644
I1641
sg3020
I3017
sg1978
I1975
sg1293
I1290
sg2499
I2496
sg2168
I2165
sg901
I898
sg723
I720
sg3280
I3277
sg46
I43
sg2173
I2170
sg71
I68
sg1490
I1487
sg2665
I2662
sg2797
I2794
sg2716
I2713
sg1312
I1309
sg1887
I1884
sg1872
I1869
sg808
I805
sg3084
I3081
sg107
I104
sg3281
I3278
sg1893
I1890
sg1104
I1101
sg756
I753
sg264
I261
sg3124
I3121
sg3232
I3229
sg1825
I1822
sg2735
I2732
sg495
I492
sg1857
I1854
sg725
I722
sg1606
I1603
sg1950
I1947
sg139
I136
sg1636
I1633
sg783
I780
sg2086
I2083
sg1083
I1080
sg3365
I3362
sg95
I92
sg2966
I2963
sg282
I279
sg1030
I1027
sg1453
I1450
sg2991
I2988
sg2494
I2491
sg106
I103
sg2470
I2467
sg1386
I1383
sg2501
I2498
sg2123
I2120
sg1621
I1618
sg1847
I1844
sg2935
I2932
sg2475
I2472
sg3346
I3343
sg2128
I2125
sg2307
I2304
sg3170
I3167
sg2531
I2528
sg1833
I1830
sg33
I30
sg3236
I3233
sg1620
I1617
sg1778
I1775
sg1284
I1281
sg2963
I2960
sg1658
I1655
sg3117
I3114
sg1688
I1685
sg2084
I2081
sg3209
I3206
sg2881
I2878
sg88
I85
sg1483
I1480
sg616
I613
sg2594
I2591
sg2740
I2737
sg1836
I1833
sg578
I575
sg216
I213
sg2841
I2838
sg3374
I3371
sg1471
I1468
sg827
I824
sg559
I556
sg356
I353
sg2262
I2259
sg2808
I2805
sg3067
I3064
sg3168
I3165
sg1610
I1607
sg144
I141
sg1630
I1627
sg1736
I1733
sg2534
I2531
sg1332
I1329
sg1809
I1806
sg3079
I3076
sg2207
I2204
sg956
I953
sg2864
I2861
sg1435
I1432
sg375
I372
sg3157
I3154
sg3007
I3004
sg773
I770
sg998
I995
sg2814
I2811
sg954
I951
sg1654
I1651
sg2236
I2233
sg3260
I3257
sg32
I29
sg1657
I1654
sg34
I31
sg1963
I1960
sg1407
I1404
sg190
I187
sg1160
I1157
sg3047
I3044
sg3150
I3147
sg2317
I2314
sg69
I66
sg1368
I1365
sg2248
I2245
sg1196
I1193
sg795
I792
sg2855
I2852
sg2437
I2434
sg2419
I2416
sg2765
I2762
sg3325
I3322
sg2957
I2954
sg1646
I1643
sg942
I939
sg243
I240
sg1869
I1866
sg2352
I2349
sg1058
I1055
sg1470
I1467
sg3298
I3295
sg2634
I2631
sg3331
I3328
sg935
I932
sg1108
I1105
sg1715
I1712
sg2418
I2415
sg894
I891
sg3024
I3021
sg3063
I3060
sg27
I24
sg1414
I1411
sg1937
I1934
sg2505
I2502
sg3086
I3083
sg2990
I2987
sg1229
I1226
sg2270
I2267
sg64
I61
sg2382
I2379
sg2096
I2093
sg730
I727
sg374
I371
sg1272
I1269
sg2046
I2043
sg2986
I2983
sg1781
I1778
sg1755
I1752
sg439
I436
sg141
I138
sg1367
I1364
sg3041
I3038
sg472
I469
ssVname
p3386
Veng
p3387
sVword2count
p3388
(dp3389
g1286
I4
sg2313
I1
sg757
I1
sg2524
I2
sg2865
I1
sg2124
I2
sg600
I5
sg1536
I2
sg312
I31
sg1680
I3
sg1792
I3
sg468
I4
sg184
I4
sg2048
I2
sg2244
I1
sg1871
I2
sg230
I12
sg1291
I2
sg2458
I1
sg3300
I1
sg544
I4
sg2820
I3
sg1096
I18
sg1070
I10
sg60
I78
sg2103
I1
sg2075
I1
sg534
I11
sg637
I1
sg1114
I1
sg3106
I4
sg2294
I6
sg2843
I2
sg1761
I14
sg613
I2
sg361
I3
sg83
I1
sg2522
I1
sg539
I34
sg831
I4
sg2482
I1
sg2545
I2
sg2581
I1
sg2678
I2
sg2446
I6
sg407
I1
sg2877
I1
sg3266
I1
sg1723
I2
sg1440
I12
sg2631
I1
sg1671
I3
sg2834
I1
sg61
I124
sg297
I35
sg3343
I1
sg2373
I6
sg1133
I1
sg2587
I1
sg1846
I1
sg105
I18
sg2546
I1
sg1164
I5
sg864
I7
sg703
I5
sg688
I16
sg2832
I1
sg2172
I3
sg2807
I1
sg1508
I2
sg2487
I5
sg586
I56
sg1410
I18
sg1880
I6
sg2209
I1
sg1949
I1
sg81
I6
sg2069
I1
sg623
I2
sg102
I5
sg772
I4
sg23
I241
sg1019
I10
sg1226
I5
sg526
I2
sg1334
I2
sg365
I8
sg369
I1
sg1255
I1
sg1009
I5
sg911
I7
sg2347
I1
sg1153
I10
sg3132
I1
sg2583
I1
sg1092
I2
sg1964
I5
sg313
I8
sg1403
I1
sg2460
I6
sg3335
I1
sg1132
I2
sg3045
I1
sg1844
I3
sg1080
I2
sg2014
I4
sg3028
I2
sg2342
I10
sg937
I4
sg863
I4
sg649
I2
sg907
I11
sg1587
I26
sg1511
I1
sg1336
I11
sg2145
I3
sg947
I24
sg2389
I4
sg2755
I1
sg2495
I3
sg1171
I3
sg283
I14
sg709
I38
sg531
I5
sg2250
I12
sg941
I8
sg136
I10
sg2642
I3
sg239
I6
sg1305
I19
sg3160
I1
sg2768
I1
sg1476
I3
sg1854
I1
sg2106
I6
sg1786
I4
sg1301
I1
sg1980
I2
sg2629
I3
sg290
I202
sg281
I11
sg1297
I27
sg220
I4
sg1903
I2
sg316
I66
sg593
I1
sg2013
I2
sg222
I7
sg2795
I2
sg1525
I1
sg117
I465
sg3088
I1
sg1074
I2
sg3352
I1
sg618
I2
sg1163
I41
sg1154
I3
sg966
I3
sg2921
I2
sg2924
I1
sg2008
I7
sg2682
I1
sg1360
I11
sg2105
I1
sg2857
I1
sg1213
I5
sg3061
I2
sg2927
I1
sg1191
I11
sg1235
I15
sg2663
I5
sg1771
I14
sg188
I5
sg2778
I4
sg1123
I11
sg496
I2
sg1573
I2
sg847
I16
sg1516
I4
sg3212
I1
sg3057
I2
sg1032
I4
sg2383
I1
sg2151
I1
sg603
I8
sg3071
I1
sg289
I16
sg2289
I1
sg2329
I1
sg2130
I1
sg137
I84
sg1707
I1
sg2691
I1
sg171
I4
sg3201
I1
sg2831
I1
sg2163
I1
sg3305
I1
sg1468
I3
sg1970
I3
sg2741
I2
sg1110
I1
sg2617
I1
sg768
I4
sg2314
I5
sg362
I8
sg1694
I2
sg2114
I9
sg930
I3
sg2622
I1
sg1121
I11
sg358
I38
sg360
I21
sg418
I8
sg1600
I6
sg3267
I1
sg3279
I1
sg1111
I2
sg500
I11
sg2875
I2
sg3143
I1
sg2153
I7
sg1065
I24
sg84
I61
sg3252
I2
sg2273
I1
sg2085
I1
sg2377
I1
sg1198
I9
sg880
I8
sg2959
I1
sg329
I7
sg2390
I2
sg3297
I1
sg471
I1
sg359
I13
sg1613
I7
sg900
I2
sg3359
I1
sg261
I385
sg2300
I1
sg2221
I4
sg3002
I2
sg1603
I3
sg832
I4
sg2138
I1
sg702
I2
sg2431
I1
sg1193
I3
sg2134
I2
sg938
I2
sg2336
I4
sg217
I7
sg2517
I2
sg1236
I1
sg1614
I2
sg2164
I1
sg66
I13
sg2064
I1
sg2293
I7
sg2312
I8
sg2364
I6
sg777
I1
sg3217
I2
sg3119
I2
sg923
I3
sg2888
I3
sg1240
I1
sg192
I2
sg376
I1
sg3182
I1
sg1514
I2
sg1925
I2
sg1351
I9
sg499
I1
sg510
I5
sg717
I6
sg523
I10
sg1283
I3
sg103
I1989
sg2607
I4
sg2527
I1
sg2620
I1
sg674
I13
sg1120
I3
sg3001
I1
sg3196
I1
sg2686
I1
sg2028
I2
sg20
I23
sg927
I1
sg3109
I2
sg1889
I9
sg2133
I8
sg3371
I1
sg1457
I1
sg2775
I1
sg1861
I2
sg1929
I1
sg300
I3
sg2073
I9
sg2334
I1
sg1024
I1
sg794
I6
sg1489
I3
sg1757
I5
sg924
I12
sg1876
I5
sg2850
I1
sg2956
I2
sg3210
I3
sg729
I18
sg1906
I4
sg1801
I8
sg2038
I6
sg2010
I17
sg322
I53
sg59
I1
sg1866
I2
sg1684
I1
sg3136
I3
sg2630
I6
sg2235
I1
sg2212
I3
sg1214
I2
sg3165
I1
sg1895
I3
sg689
I2
sg1592
I6
sg788
I6
sg2353
I1
sg1317
I3
sg138
I113
sg160
I364
sg1243
I11
sg1605
I2
sg1028
I17
sg1202
I3
sg449
I4
sg1076
I1
sg3370
I1
sg121
I2
sg406
I4
sg1718
I2
sg1774
I11
sg3332
I1
sg212
I13
sg2893
I3
sg1320
I9
sg1342
I7
sg2380
I6
sg275
I4
sg245
I14
sg481
I1
sg574
I44
sg2092
I2
sg3144
I1
sg3226
I1
sg604
I7
sg344
I32
sg1268
I2
sg1365
I4
sg1500
I7
sg3066
I1
sg2655
I3
sg3146
I1
sg169
I28
sg1806
I2
sg1582
I5
sg2955
I1
sg1785
I2
sg1016
I6
sg1693
I1
sg2901
I8
sg2975
I1
sg899
I3
sg2231
I3
sg550
I1
sg1207
I1
sg2405
I2
sg1015
I7
sg2939
I3
sg2000
I1
sg728
I4
sg1594
I2
sg331
I4
sg1428
I20
sg2190
I1
sg3149
I1
sg1335
I8
sg605
I11
sg1886
I8
sg687
I10
sg6
I2866
sg505
I5
sg3017
I1
sg3378
I1
sg2241
I4
sg429
I2
sg2554
I1
sg3295
I1
sg3056
I1
sg2432
I2
sg1750
I11
sg2421
I8
sg2194
I1
sg2384
I2
sg2285
I1
sg3282
I1
sg2484
I1
sg644
I1
sg2404
I1
sg2805
I1
sg976
I4
sg320
I3
sg1902
I2
sg3229
I1
sg3122
I2
sg18
I93
sg1775
I2
sg370
I10
sg698
I16
sg2789
I3
sg1094
I2
sg26
I30
sg2562
I1
sg1300
I1
sg2736
I1
sg690
I2
sg3302
I1
sg985
I48
sg130
I172
sg1161
I1
sg39
I4
sg2729
I2
sg315
I6
sg2227
I1
sg1540
I2
sg1899
I2
sg2819
I1
sg2571
I2
sg2055
I1
sg2965
I5
sg692
I1
sg2697
I3
sg1117
I1
sg3116
I2
sg292
I1
sg3345
I1
sg1450
I2
sg2372
I2
sg2543
I1
sg3233
I2
sg1182
I4
sg480
I44
sg2915
I2
sg3268
I1
sg434
I2
sg1835
I1
sg1569
I4
sg2514
I1
sg219
I7
sg3126
I1
sg3318
I2
sg1122
I2
sg2335
I1
sg1106
I2
sg3377
I1
sg2341
I1
sg2386
I2
sg2226
I1
sg1370
I3
sg2492
I7
sg3176
I2
sg349
I1
sg1152
I1
sg248
I45
sg2459
I6
sg575
I2
sg767
I39
sg3248
I1
sg1752
I1
sg1054
I20
sg806
I7
sg1261
I1
sg1588
I4
sg1522
I9
sg2197
I2
sg1262
I1
sg2887
I1
sg2830
I1
sg100
I781
sg597
I4
sg1954
I8
sg3353
I1
sg1298
I1
sg1629
I4
sg567
I5
sg30
I10
sg364
I12
sg2230
I2
sg1674
I1
sg2997
I4
sg2840
I1
sg967
I2
sg1157
I2
sg749
I6
sg1143
I6
sg2558
I4
sg1904
I9
sg1526
I3
sg2999
I1
sg1590
I6
sg36
I9
sg1656
I2
sg1549
I3
sg438
I14
sg1639
I2
sg3081
I1
sg2301
I1
sg2167
I1
sg2109
I1
sg3185
I2
sg2541
I1
sg3308
I1
sg1012
I9
sg413
I1
sg3207
I1
sg543
I1
sg1086
I8
sg1971
I6
sg189
I3
sg3306
I1
sg2454
I3
sg2440
I1
sg2759
I2
sg2344
I1
sg1228
I4
sg116
I1
sg153
I10
sg507
I6
sg713
I63
sg2216
I3
sg1770
I2
sg2018
I1
sg2337
I1
sg1081
I30
sg1269
I41
sg7
I10823
sg1793
I3
sg241
I8
sg1263
I49
sg3293
I3
sg2673
I7
sg982
I3
sg642
I16
sg812
I6
sg354
I1
sg1888
I17
sg2523
I1
sg1537
I1
sg1464
I1
sg1678
I3
sg1539
I8
sg3062
I1
sg1724
I4
sg142
I37
sg1810
I7
sg3051
I1
sg2427
I1
sg1517
I1
sg2154
I1
sg708
I5
sg511
I1
sg910
I1
sg2913
I1
sg2178
I4
sg29
I2
sg1552
I1
sg2444
I1
sg1547
I1
sg3070
I2
sg2118
I1
sg3010
I1
sg1687
I1
sg35
I1307
sg108
I345
sg2400
I1
sg1209
I21
sg182
I6
sg1112
I1
sg90
I645
sg2031
I3
sg2361
I1
sg1790
I6
sg696
I2
sg1911
I11
sg669
I3
sg2198
I1
sg3344
I1
sg1709
I18
sg1011
I38
sg2810
I2
sg1422
I1
sg1441
I1
sg2660
I2
sg2005
I4
sg2985
I3
sg2933
I1
sg2206
I4
sg2899
I2
sg3276
I1
sg1675
I1
sg238
I3
sg1302
I6
sg3094
I2
sg2890
I2
sg155
I20
sg745
I1
sg125
I4
sg1631
I1
sg936
I2
sg1285
I4
sg3087
I1
sg2624
I4
sg3341
I1
sg2952
I1
sg2718
I1
sg770
I3
sg961
I2
sg1558
I1
sg3296
I3
sg1175
I3
sg2858
I4
sg721
I28
sg170
I1044
sg1758
I4
sg582
I7
sg2936
I2
sg348
I168
sg654
I6
sg1609
I1
sg2080
I1
sg1437
I1
sg96
I15
sg385
I4
sg2605
I1
sg1394
I1
sg1187
I1
sg2050
I1
sg73
I4
sg409
I2
sg706
I31
sg3155
I1
sg1912
I2
sg2166
I1
sg1025
I4
sg2917
I2
sg858
I56
sg2052
I1
sg3049
I2
sg2733
I1
sg437
I1
sg232
I11
sg2449
I5
sg786
I2
sg986
I13
sg2271
I2
sg2906
I2
sg2104
I3
sg3107
I1
sg2867
I2
sg3239
I2
sg2923
I5
sg1873
I5
sg606
I2
sg2360
I8
sg1501
I4
sg2900
I1
sg1717
I1
sg2677
I3
sg2087
I1
sg2441
I3
sg1870
I3
sg1528
I1
sg2305
I2
sg1485
I8
sg1427
I1
sg3191
I1
sg440
I5
sg558
I39
sg1632
I1
sg58
I143
sg10
I101
sg2994
I1
sg1823
I6
sg1454
I20
sg1047
I1
sg3354
I2
sg236
I2
sg1659
I2
sg235
I25
sg540
I51
sg3301
I1
sg2782
I1
sg1882
I2
sg902
I1
sg2426
I1
sg622
I3
sg2117
I1
sg992
I415
sg253
I2
sg2302
I4
sg755
I3
sg1090
I8
sg1874
I28
sg2222
I16
sg2332
I2
sg2742
I1
sg1756
I2
sg779
I1
sg2526
I4
sg1628
I2
sg1167
I1
sg3330
I1
sg1391
I2
sg1685
I1
sg2878
I4
sg1637
I1
sg93
I21
sg1145
I1
sg2535
I3
sg1819
I2
sg3274
I3
sg210
I1
sg1421
I1
sg2869
I1
sg2434
I7
sg2119
I5
sg2369
I5
sg815
I2
sg1431
I15
sg3333
I1
sg1984
I1
sg1245
I2
sg2182
I3
sg893
I11
sg1892
I1
sg2032
I4
sg3098
I1
sg1098
I23
sg638
I6
sg1794
I1
sg2469
I3
sg1142
I4
sg382
I21
sg537
I29
sg1348
I1
sg2349
I1
sg2553
I6
sg917
I1
sg2572
I1
sg1879
I1
sg1905
I2
sg842
I30
sg2265
I1
sg676
I15
sg1210
I23
sg254
I8
sg1948
I2
sg2937
I4
sg357
I47
sg1126
I19
sg47
I659
sg957
I7
sg55
I125
sg1075
I10
sg1337
I2
sg1913
I3
sg2910
I6
sg1747
I3
sg883
I4
sg2034
I3
sg1570
I8
sg533
I54
sg2623
I3
sg395
I15
sg2758
I4
sg2818
I1
sg1648
I6
sg2737
I1
sg1650
I1
sg485
I7
sg2061
I12
sg94
I1
sg1448
I2
sg639
I1
sg2155
I2
sg1507
I1
sg2603
I1
sg1023
I1
sg1538
I10
sg1989
I5
sg2093
I5
sg309
I18
sg3211
I1
sg2925
I4
sg888
I2
sg1988
I5
sg291
I6
sg2618
I1
sg1116
I1
sg3128
I2
sg2770
I4
sg1898
I1
sg53
I18
sg159
I92
sg1762
I22
sg583
I1
sg2938
I3
sg452
I62
sg2670
I1
sg3347
I1
sg1042
I2
sg2931
I3
sg1289
I7
sg1169
I7
sg3158
I1
sg1813
I16
sg2530
I1
sg487
I6
sg2882
I1
sg1354
I7
sg1803
I2
sg355
I5
sg2081
I2
sg2596
I3
sg1780
I1
sg1695
I9
sg2891
I1
sg2161
I4
sg1345
I23
sg1232
I64
sg2809
I1
sg2340
I1
sg1088
I1
sg647
I3
sg1473
I11
sg2029
I2
sg1824
I2
sg2575
I1
sg959
I6
sg754
I81
sg164
I9
sg3289
I1
sg3355
I4
sg1936
I1
sg2296
I1
sg2569
I15
sg213
I25
sg1131
I1
sg3322
I1
sg657
I9
sg3093
I3
sg1238
I2
sg1430
I3
sg2345
I1
sg489
I23
sg1040
I1
sg2746
I1
sg1934
I3
sg869
I8
sg1959
I1
sg1329
I2
sg278
I4
sg1576
I7
sg3156
I1
sg2363
I1
sg416
I54
sg933
I3
sg2107
I1
sg3179
I1
sg1831
I1
sg1043
I5
sg2391
I1
sg735
I3
sg2077
I1
sg2135
I2
sg1344
I3
sg112
I3
sg1271
I1
sg2281
I2
sg1466
I1
sg3153
I1
sg3154
I1
sg2438
I1
sg122
I15
sg517
I1
sg451
I24
sg1041
I1
sg3021
I3
sg2498
I3
sg2394
I1
sg2914
I1
sg560
I1
sg2067
I8
sg701
I13
sg477
I1
sg311
I60
sg897
I1
sg2563
I1
sg814
I11
sg825
I6
sg431
I4
sg2442
I2
sg2518
I1
sg666
I17
sg2315
I7
sg2053
I7
sg2303
I1
sg747
I3
sg3068
I1
sg3192
I4
sg2512
I3
sg2365
I2
sg251
I1
sg1480
I2
sg161
I9
sg490
I1
sg2868
I1
sg2821
I1
sg2715
I1
sg2688
I1
sg3003
I4
sg3231
I1
sg2612
I1
sg327
I5
sg1260
I3
sg3174
I1
sg3042
I2
sg2552
I2
sg2942
I1
sg1579
I2
sg3208
I1
sg2243
I1
sg1021
I1
sg615
I1
sg298
I2
sg79
I59
sg1848
I4
sg820
I12
sg1909
I1
sg694
I2
sg109
I63
sg2255
I6
sg328
I53
sg1174
I6
sg76
I42
sg1725
I4
sg72
I32
sg469
I12
sg211
I38
sg152
I7
sg2274
I1
sg458
I5
sg3243
I1
sg1996
I1
sg3175
I2
sg2744
I1
sg1812
I2
sg3277
I3
sg1251
I6
sg3324
I1
sg653
I2
sg775
I5
sg948
I3
sg1141
I2
sg497
I35
sg508
I1
sg824
I1
sg2653
I2
sg763
I1
sg2358
I3
sg684
I3
sg1838
I7
sg1505
I1
sg380
I48
sg420
I4
sg673
I1
sg2696
I1
sg49
I38
sg2388
I5
sg1459
I5
sg1201
I6
sg2295
I4
sg1364
I22
sg3015
I1
sg646
I2
sg2521
I3
sg2489
I2
sg441
I91
sg387
I3
sg3110
I1
sg529
I12
sg2506
I3
sg1564
I3
sg1038
I2
sg1077
I2
sg1084
I1
sg1670
I2
sg2326
I2
sg555
I1
sg44
I6
sg1492
I3
sg3167
I1
sg1241
I1
sg294
I21
sg1105
I5
sg675
I5
sg790
I1
sg1331
I3
sg1711
I3
sg2928
I2
sg14
I1402
sg1256
I2
sg453
I43
sg2750
I1
sg2796
I1
sg352
I5
sg353
I25
sg1456
I1
sg1865
I8
sg2701
I2
sg621
I1
sg3214
I1
sg423
I22
sg2987
I1
sg591
I1
sg1309
I1
sg259
I1
sg1002
I2
sg1034
I19
sg1439
I3
sg1627
I1
sg3364
I1
sg3244
I1
sg197
I1
sg398
I1
sg3223
I1
sg1923
I4
sg1377
I10
sg1852
I1
sg1035
I4
sg1997
I1
sg1203
I6
sg905
I14
sg1995
I11
sg1897
I1
sg377
I14
sg2245
I2
sg1740
I1
sg226
I2
sg3023
I1
sg727
I2
sg1381
I4
sg2430
I1
sg2930
I3
sg341
I13
sg665
I1
sg682
I30
sg969
I3
sg1393
I7
sg2088
I3
sg48
I77
sg1550
I8
sg658
I1
sg1385
I3
sg707
I27
sg2920
I2
sg3097
I2
sg970
I1
sg1840
I3
sg2616
I1
sg710
I71
sg97
I102
sg1985
I2
sg2299
I2
sg28
I51
sg207
I33
sg1973
I4
sg1956
I4
sg186
I3
sg1565
I10
sg2385
I1
sg2863
I2
sg720
I76
sg1957
I4
sg3379
I1
sg1633
I5
sg143
I1
sg104
I30
sg467
I97
sg2004
I1
sg1595
I1
sg1387
I15
sg1220
I14
sg1868
I56
sg584
I1
sg579
I6
sg887
I1
sg1497
I12
sg1509
I1
sg877
I2
sg2637
I1
sg691
I1
sg2500
I13
sg3367
I1
sg92
I9
sg2710
I1
sg442
I4
sg1216
I1
sg2047
I3
sg736
I15
sg2762
I1
sg2399
I2
sg177
I9
sg119
I971
sg163
I211
sg1000
I5
sg2658
I8
sg3052
I2
sg392
I8
sg2981
I2
sg699
I13
sg2070
I3
sg1138
I4
sg2646
I1
sg2726
I1
sg2068
I19
sg1692
I1
sg3240
I2
sg1849
I2
sg633
I1
sg2781
I1
sg1789
I2
sg2926
I1
sg2403
I2
sg1599
I8
sg1691
I1
sg157
I49
sg133
I9
sg3133
I1
sg3038
I1
sg2467
I1
sg3328
I1
sg569
I1
sg412
I2
sg3202
I1
sg1574
I9
sg862
I28
sg2041
I1
sg2415
I3
sg576
I2
sg681
I2
sg1287
I7
sg2504
I1
sg2825
I1
sg2794
I1
sg1218
I2
sg751
I135
sg2599
I1
sg1645
I4
sg384
I25
sg2785
I1
sg317
I9
sg3053
I1
sg1883
I2
sg881
I4
sg913
I2
sg2714
I1
sg3037
I1
sg464
I45
sg2644
I1
sg233
I2
sg3294
I1
sg1277
I1
sg2976
I2
sg2508
I1
sg731
I1
sg1965
I4
sg1313
I3
sg2609
I3
sg536
I115
sg2375
I2
sg2845
I1
sg2466
I1
sg2476
I2
sg547
I19
sg1304
I7
sg845
I16
sg1987
I1
sg3307
I1
sg1722
I28
sg1295
I2
sg388
I18
sg571
I6
sg3216
I1
sg301
I2
sg2298
I4
sg3220
I2
sg1050
I1
sg599
I64
sg1463
I1
sg1568
I16
sg2147
I5
sg697
I10
sg1100
I7
sg1303
I3
sg1467
I10
sg678
I27
sg1561
I45
sg2799
I2
sg566
I1
sg2970
I5
sg871
I8
sg860
I72
sg2457
I2
sg2082
I3
sg1733
I2
sg804
I3
sg2204
I1
sg2635
I2
sg77
I1222
sg1186
I15
sg716
I1
sg3019
I1
sg167
I1
sg2582
I1
sg1330
I7
sg214
I70
sg1541
I20
sg1299
I2
sg306
I360
sg2671
I2
sg3311
I1
sg904
I7
sg1057
I186
sg3250
I1
sg1534
I7
sg473
I6
sg2539
I3
sg2788
I5
sg2912
I1
sg1324
I5
sg3241
I1
sg2280
I3
sg1221
I8
sg1156
I8
sg1018
I61
sg977
I4
sg114
I13
sg2350
I1
sg1101
I1
sg1379
I1
sg1811
I1
sg3255
I1
sg978
I120
sg2692
I5
sg1942
I1
sg2112
I2
sg2801
I1
sg482
I4
sg1791
I2
sg11
I9
sg1817
I3
sg131
I32
sg791
I1
sg514
I1
sg949
I4
sg2392
I1
sg903
I3
sg1222
I12
sg1176
I76
sg2187
I2
sg1072
I9
sg1713
I10
sg3147
I1
sg3253
I1
sg1655
I1
sg2643
I3
sg685
I2
sg1683
I6
sg752
I3
sg2638
I1
sg2413
I1
sg951
I65
sg127
I2
sg636
I1
sg2559
I1
sg1962
I2
sg340
I1
sg2971
I1
sg1060
I4
sg43
I112
sg154
I15
sg2191
I1
sg861
I2
sg2030
I4
sg3004
I1
sg2323
I1
sg1796
I9
sg987
I3
sg2425
I11
sg740
I5
sg3275
I1
sg1374
I3
sg3034
I1
sg2473
I2
sg2474
I1
sg2297
I1
sg2058
I2
sg760
I52
sg89
I67
sg3348
I1
sg400
I9
sg1690
I2
sg556
I4
sg1858
I9
sg255
I8
sg2547
I1
sg1518
I6
sg1376
I13
sg989
I1
sg1071
I3
sg660
I3
sg3161
I1
sg1026
I1
sg386
I3
sg1495
I5
sg2978
I1
sg1642
I41
sg1146
I3
sg461
I59
sg54
I400
sg2278
I6
sg2327
I1
sg840
I1
sg2628
I1
sg3362
I1
sg417
I2
sg421
I96
sg1135
I1
sg1667
I3
sg568
I3
sg695
I4
sg929
I1
sg1641
I6
sg2045
I1
sg3204
I1
sg738
I1
sg2017
I3
sg332
I14
sg2813
I1
sg2922
I1
sg1259
I4
sg656
I19
sg321
I45
sg463
I3
sg2242
I4
sg807
I5
sg1328
I1
sg2257
I8
sg2176
I2
sg2455
I2
sg2113
I4
sg2542
I7
sg2779
I1
sg2232
I1
sg513
I2
sg2800
I2
sg2037
I2
sg1940
I6
sg661
I8
sg2838
I1
sg2967
I1
sg2619
I1
sg2252
I2
sg1274
I3
sg2339
I2
sg2560
I1
sg1748
I3
sg2556
I2
sg853
I18
sg2707
I3
sg284
I33
sg1493
I3
sg2071
I1
sg2201
I2
sg2648
I2
sg1966
I3
sg650
I1
sg1275
I2
sg753
I4
sg1158
I5
sg2485
I2
sg1732
I1
sg778
I2
sg1862
I3
sg3286
I1
sg504
I53
sg303
I22
sg2669
I1
sg984
I12
sg2165
I10
sg123
I1
sg2406
I4
sg1635
I1
sg2941
I6
sg37
I1080
sg906
I1
sg2960
I3
sg3259
I1
sg425
I8
sg1479
I6
sg1183
I6
sg1333
I3
sg570
I2
sg124
I2
sg1046
I24
sg1960
I2
sg3148
I1
sg1340
I5
sg2254
I4
sg577
I2
sg1945
I1
sg175
I5
sg1664
I4
sg2507
I1
sg1900
I1
sg2471
I1
sg594
I8
sg891
I3
sg2493
I1
sg1816
I1
sg2786
I1
sg1676
I1
sg838
I32
sg2043
I12
sg3127
I6
sg1927
I2
sg1943
I5
sg1341
I1
sg2989
I1
sg1276
I2
sg334
I1
sg2593
I1
sg946
I8
sg270
I10
sg994
I55
sg841
I9
sg1545
I1
sg1443
I1
sg2886
I2
sg2826
I1
sg2234
I1
sg2972
I2
sg2766
I1
sg2188
I2
sg2536
I10
sg1384
I1
sg793
I50
sg960
I2
sg1078
I2
sg165
I2
sg372
I7
sg997
I25
sg244
I6
sg2193
I4
sg1418
I1
sg3177
I1
sg2089
I4
sg1513
I1
sg2564
I1
sg799
I1
sg1672
I2
sg2025
I2
sg2615
I1
sg630
I20
sg2812
I1
sg1308
I1
sg1244
I1
sg1566
I9
sg2853
I1
sg835
I33
sg1113
I8
sg2381
I5
sg2397
I4
sg1264
I1
sg2846
I1
sg1626
I1
sg1557
I16
sg2152
I4
sg2211
I1
sg552
I2
sg1037
I1
sg2787
I1
sg953
I12
sg194
I3
sg475
I19
sg833
I4
sg399
I1
sg1993
I8
sg1665
I2
sg1425
I12
sg3016
I1
sg2233
I1
sg373
I2
sg2024
I2
sg1419
I1
sg1845
I7
sg2550
I5
sg3140
I1
sg1162
I84
sg2006
I6
sg3299
I1
sg2015
I3
sg2411
I2
sg2792
I1
sg1891
I2
sg2980
I1
sg1739
I4
sg2021
I10
sg494
I2
sg732
I43
sg758
I42
sg737
I2
sg659
I6
sg2062
I1
sg1779
I6
sg397
I2
sg2578
I1
sg393
I16
sg1991
I4
sg1125
I1
sg422
I2
sg3159
I2
sg1211
I21
sg2223
I1
sg3224
I1
sg1918
I5
sg1248
I35
sg1729
I2
sg476
I12
sg3215
I1
sg1577
I1
sg1343
I5
sg1760
I1
sg1411
I9
sg3108
I1
sg75
I26
sg247
I7
sg796
I4
sg206
I30
sg852
I2
sg1382
I1
sg2816
I2
sg183
I37
sg3129
I2
sg1734
I10
sg634
I16
sg895
I5
sg3315
I2
sg734
I31
sg277
I1
sg3372
I1
sg2704
I1
sg1992
I5
sg1346
I9
sg1634
I11
sg2712
I1
sg2680
I7
sg1356
I11
sg1901
I2
sg1436
I2
sg1983
I1
sg1426
I3
sg126
I16
sg886
I2
sg1491
I1
sg2745
I1
sg3222
I1
sg1315
I1
sg3194
I1
sg3221
I1
sg273
I1
sg876
I29
sg993
I11
sg781
I2
sg1581
I4
sg1089
I2
sg2481
I1
sg3257
I1
sg2509
I1
sg1712
I1
sg2532
I2
sg266
I5
sg502
I50
sg1548
I2
sg1527
I11
sg446
I4
sg2246
I1
sg2374
I3
sg3339
I1
sg1095
I1
sg2776
I5
sg1311
I1
sg2079
I1
sg590
I1
sg668
I1
sg200
I2
sg1586
I1
sg8
I5
sg2815
I1
sg2239
I1
sg595
I711
sg1721
I1
sg784
I1
sg750
I2
sg2892
I1
sg314
I61
sg3195
I1
sg830
I1
sg498
I6
sg2120
I7
sg1413
I5
sg2590
I1
sg1834
I1
sg1759
I4
sg424
I8
sg2734
I1
sg3205
I1
sg363
I327
sg672
I1
sg520
I170
sg2666
I2
sg626
I125
sg512
I61
sg680
I1
sg1039
I5
sg1137
I8
sg643
I1
sg1839
I7
sg771
I19
sg2371
I6
sg2170
I1
sg488
I3
sg1314
I3
sg1390
I14
sg2639
I1
sg2757
I3
sg405
I3
sg2100
I2
sg1860
I2
sg2309
I1
sg2767
I1
sg2378
I1
sg2540
I1
sg944
I7
sg271
I70
sg624
I359
sg1396
I8
sg1128
I8
sg3273
I1
sg1575
I5
sg1744
I1
sg1109
I5
sg1818
I1
sg2240
I1
sg1359
I1
sg286
I3
sg800
I1
sg2428
I1
sg1082
I1
sg263
I8
sg338
I9
sg148
I12
sg265
I1
sg1246
I1
sg13
I772
sg818
I1
sg1118
I1
sg865
I235
sg146
I381
sg2401
I1
sg3380
I1
sg1484
I13
sg2724
I3
sg2268
I1
sg1615
I3
sg3048
I5
sg2144
I4
sg1941
I1
sg802
I51
sg2839
I1
sg973
I1
sg645
I7
sg3310
I1
sg2159
I1
sg1716
I4
sg2549
I3
sg3193
I1
sg1357
I1
sg1938
I4
sg368
I1
sg299
I3
sg67
I30
sg2687
I1
sg493
I16
sg1697
I3
sg553
I4
sg3272
I1
sg342
I6
sg3050
I1
sg1563
I5
sg1349
I2
sg2515
I1
sg367
I10
sg3283
I1
sg3096
I1
sg2597
I2
sg2664
I2
sg447
I37
sg2720
I1
sg1920
I2
sg3265
I1
sg2192
I11
sg2904
I1
sg218
I165
sg3118
I2
sg113
I34
sg1004
I2
sg198
I12
sg1068
I1
sg2310
I2
sg3363
I1
sg2098
I8
sg3329
I1
sg2676
I2
sg1130
I1
sg2719
I2
sg1003
I7
sg1200
I9
sg1449
I3
sg780
I23
sg2769
I1
sg1994
I5
sg147
I10
sg2338
I2
sg1281
I3
sg551
I27
sg302
I1556
sg2584
I1
sg509
I2
sg2883
I2
sg2393
I4
sg573
I6
sg2366
I1
sg826
I2
sg2783
I1
sg589
I31
sg3225
I2
sg3027
I1
sg1498
I13
sg250
I468
sg2723
I1
sg9
I10
sg2998
I1
sg625
I3
sg1353
I11
sg679
I4
sg3105
I1
sg1180
I3
sg965
I1
sg1961
I3
sg2264
I4
sg2094
I7
sg1129
I11
sg1233
I3
sg592
I5
sg2453
I1
sg859
I5
sg3172
I2
sg1434
I7
sg2874
I2
sg1323
I4
sg2131
I1
sg3291
I2
sg1170
I6
sg2451
I2
sg3141
I1
sg2368
I12
sg454
I4
sg663
I4
sg2698
I3
sg288
I5
sg2199
I2
sg1714
I4
sg2557
I1
sg1252
I1
sg2520
I1
sg1477
I85
sg257
I6
sg2370
I5
sg1149
I5
sg1022
I5
sg1842
I1
sg45
I13
sg1247
I2
sg145
I6
sg2122
I4
sg2443
I1
sg2652
I1
sg401
I2
sg21
I11
sg223
I5
sg2659
I1
sg229
I2
sg1134
I1
sg2205
I8
sg2003
I1
sg2435
I2
sg3327
I1
sg1069
I1
sg2567
I1
sg120
I24
sg805
I1
sg2709
I3
sg3046
I2
sg3180
I1
sg3254
I1
sg1808
I4
sg2944
I3
sg2063
I1
sg2356
I4
sg882
I2
sg1746
I7
sg2866
I1
sg1662
I3
sg1503
I1
sg3131
I3
sg2903
I1
sg486
I23
sg1776
I7
sg1719
I10
sg2907
I2
sg2410
I1
sg2773
I1
sg180
I3
sg726
I3
sg1666
I2
sg3262
I1
sg1280
I2
sg2478
I1
sg3130
I1
sg1804
I3
sg1486
I1
sg1998
I1
sg1682
I10
sg305
I73
sg1399
I9
sg635
I1
sg3008
I3
sg1969
I13
sg3091
I2
sg1764
I1
sg2012
I1
sg52
I4
sg2291
I5
sg719
I11
sg450
I14
sg744
I125
sg2601
I1
sg587
I8
sg2672
I2
sg1322
I1
sg1797
I2
sg2790
I1
sg2328
I1
sg1144
I1
sg242
I3
sg1951
I1
sg890
I2
sg1799
I17
sg2705
I1
sg1355
I14
sg335
I48
sg609
I5
sg2108
I1
sg2703
I1
sg2566
I1
sg1915
I3
sg1173
I8
sg1591
I9
sg3320
I1
sg1699
I3
sg3022
I3
sg1767
I5
sg964
I2
sg3005
I1
sg1546
I10
sg2683
I1
sg2902
I1
sg2287
I2
sg57
I66
sg1598
I4
sg2035
I3
sg474
I1
sg912
I8
sg3349
I1
sg3178
I1
sg542
I1
sg1445
I2
sg174
I7
sg2817
I2
sg1529
I7
sg3039
I4
sg1358
I1
sg402
I51
sg25
I3
sg78
I10
sg1225
I15
sg2870
I1
sg811
I6
sg2502
I2
sg1701
I1
sg1822
I1
sg85
I28
sg631
I1
sg2408
I2
sg2894
I2
sg2828
I3
sg38
I1617
sg848
I3
sg419
I24
sg484
I4
sg411
I2
sg2200
I1
sg1885
I4
sg940
I2
sg1829
I4
sg3089
I2
sg1230
I2
sg962
I38
sg2721
I1
sg2940
I3
sg63
I150
sg1617
I2
sg2674
I1
sg2895
I1
sg2725
I1
sg1953
I12
sg3011
I1
sg2330
I1
sg641
I2
sg1855
I1
sg3013
I2
sg3326
I1
sg1625
I6
sg3069
I1
sg2412
I1
sg1494
I3
sg2143
I1
sg2802
I1
sg908
I1
sg846
I3
sg2993
I1
sg2417
I2
sg2876
I3
sg2592
I2
sg24
I49
sg782
I1
sg3031
I1
sg2496
I1
sg2689
I1
sg1179
I1
sg366
I2
sg2224
I3
sg209
I7
sg1738
I12
sg934
I2
sg41
I222
sg350
I3
sg2445
I1
sg1415
I12
sg2416
I1
sg524
I1
sg528
I4
sg3073
I1
sg2480
I4
sg563
I2
sg1217
I3
sg1597
I9
sg3072
I1
sg2306
I2
sg483
I5
sg1910
I12
sg565
I124
sg1544
I1
sg3316
I1
sg1907
I12
sg1266
I7
sg1589
I1
sg1531
I4
sg1908
I2
sg1338
I6
sg742
I2
sg249
I5
sg879
I10
sg3219
I2
sg748
I19
sg693
I11
sg776
I32
sg2072
I2
sg521
I31
sg2784
I1
sg2225
I1
sg809
I3
sg2407
I1
sg465
I108
sg203
I14
sg2292
I1
sg1339
I3
sg2916
I2
sg792
I6
sg455
I4
sg1559
I2
sg3321
I1
sg1677
I10
sg1319
I17
sg614
I1
sg516
I1
sg17
I4
sg3171
I1
sg652
I2
sg1877
I1
sg1184
I2
sg1482
I2
sg1504
I3
sg1502
I1
sg1310
I2
sg2180
I1
sg1005
I10
sg279
I21
sg1172
I50
sg1045
I51
sg195
I1
sg1735
I1
sg2684
I2
sg1474
I2
sg3190
I1
sg2490
I2
sg1519
I14
sg1062
I4
sg296
I22
sg339
I33
sg1458
I1
sg3313
I1
sg619
I1
sg2322
I1
sg1914
I5
sg2525
I1
sg1227
I3
sg2679
I1
sg326
I58
sg1802
I2
sg308
I8
sg670
I4
sg2468
I8
sg2625
I1
sg718
I8
sg1392
I3
sg2465
I1
sg237
I36
sg2570
I2
sg2693
I6
sg3077
I1
sg1551
I2
sg1602
I22
sg3334
I1
sg958
I7
sg2497
I1
sg2905
I2
sg2667
I2
sg1067
I3
sg2551
I1
sg915
I1
sg918
I6
sg234
I3
sg3120
I1
sg2433
I1
sg1352
I1
sg834
I1
sg1140
I3
sg1061
I6
sg2565
I1
sg3164
I2
sg378
I1
sg2189
I1
sg1294
I4
sg1661
I10
sg2148
I5
sg2321
I3
sg1085
I7
sg371
I3
sg2177
I1
sg996
I44
sg336
I14
sg1727
I1
sg3054
I2
sg65
I51
sg1442
I3
sg3366
I1
sg2083
I3
sg2859
I2
sg1922
I23
sg426
I3
sg1975
I1
sg3030
I1
sg2140
I2
sg1608
I3
sg2308
I1
sg1706
I6
sg932
I1
sg2479
I1
sg2568
I2
sg1652
I1
sg2848
I1
sg1624
I2
sg2181
I2
sg1475
I1
sg1567
I6
sg1007
I8
sg1843
I1
sg150
I8
sg1446
I7
sg2650
I1
sg979
I8
sg1967
I3
sg746
I2
sg3055
I1
sg176
I9
sg3309
I1
sg3006
I6
sg765
I3
sg839
I25
sg926
I3
sg337
I1
sg2066
I2
sg2472
I1
sg705
I8
sg2402
I1
sg1807
I1
sg1930
I13
sg428
I4
sg2007
I14
sg1010
I20
sg2717
I3
sg1219
I9
sg2764
I1
sg2284
I6
sg2668
I2
sg2002
I1
sg2111
I4
sg3376
I1
sg2752
I3
sg2343
I1
sg3076
I1
sg3199
I1
sg3163
I2
sg70
I21
sg963
I9
sg168
I2
sg3247
I1
sg1254
I26
sg1653
I3
sg1826
I1
sg3092
I1
sg19
I20
sg1181
I42
sg2754
I3
sg1647
I2
sg158
I26
sg2753
I1
sg396
I8
sg173
I7
sg2237
I1
sg383
I29
sg3381
I1
sg522
I170
sg2051
I3
sg1288
I3
sg2743
I6
sg3125
I1
sg3351
I1
sg711
I1
sg3115
I1
sg3285
I1
sg1974
I1
sg2283
I1
sg1515
I1
sg2793
I1
sg2555
I3
sg256
I177
sg885
I11
sg3230
I1
sg2157
I1
sg1619
I3
sg3035
I2
sg1325
I2
sg1766
I2
sg1270
I2
sg541
I2
sg414
I1
sg2806
I2
sg2169
I1
sg381
I4
sg617
I7
sg2078
I6
sg2896
I7
sg3304
I2
sg3135
I1
sg390
I120
sg2595
I1
sg101
I651
sg1679
I4
sg181
I8
sg2150
I6
sg2763
I1
sg3288
I1
sg2056
I4
sg351
I26
sg2001
I3
sg1048
I3
sg3237
I2
sg1316
I17
sg611
I5
sg1326
I8
sg1560
I9
sg3270
I1
sg3033
I1
sg1020
I1
sg990
I13
sg2798
I2
sg3375
I1
sg2756
I1
sg2706
I1
sg1947
I2
sg3100
I1
sg3312
I1
sg683
I5
sg1049
I5
sg1237
I2
sg1438
I2
sg2461
I5
sg1520
I7
sg3121
I2
sg2436
I1
sg2872
I1
sg628
I34
sg3251
I1
sg3228
I1
sg1535
I29
sg2675
I2
sg1593
I4
sg813
I1
sg1362
I14
sg3258
I1
sg2259
I2
sg1127
I5
sg3256
I1
sg2320
I2
sg2598
I1
sg627
I3
sg1488
I1
sg1406
I7
sg1749
I3
sg1148
I1
sg132
I24
sg2276
I2
sg276
I9
sg3036
I3
sg1832
I1
sg2049
I1
sg1429
I7
sg2316
I3
sg1223
I3
sg2219
I1
sg916
I3
sg2279
I3
sg2898
I2
sg2261
I5
sg2946
I1
sg2977
I1
sg2823
I3
sg2804
I3
sg1412
I2
sg1881
I1
sg1166
I9
sg2286
I1
sg1079
I21
sg1921
I2
sg2984
I1
sg3358
I1
sg162
I3
sg287
I1
sg2040
I3
sg2645
I4
sg1571
I3
sg2160
I6
sg2953
I1
sg2101
I1
sg2803
I1
sg2208
I7
sg3104
I1
sg50
I10
sg1553
I12
sg2580
I1
sg2711
I1
sg819
I7
sg2862
I1
sg1863
I13
sg1720
I1
sg492
I3
sg1389
I2
sg3249
I1
sg1958
I1
sg2827
I2
sg2174
I1
sg1649
I7
sg2713
I1
sg1554
I8
sg2606
I6
sg1686
I1
sg448
I14
sg1066
I1
sg1805
I1
sg2613
I1
sg1327
I8
sg2835
I2
sg875
I16
sg581
I1
sg2829
I2
sg2722
I1
sg56
I39
sg2256
I3
sg1478
I17
sg554
I1
sg272
I6
sg1197
I4
sg1562
I83
sg2576
I1
sg1931
I2
sg404
I1
sg1555
I6
sg2137
I2
sg1853
I1
sg2319
I4
sg1643
I1
sg1867
I4
sg1249
I44
sg785
I5
sg1784
I2
sg1371
I4
sg1702
I2
sg662
I4
sg1380
I24
sg2837
I1
sg1115
I22
sg822
I2
sg1397
I5
sg945
I2
sg3186
I1
sg1741
I4
sg1821
I4
sg610
I3
sg1056
I50
sg1743
I14
sg1401
I6
sg2379
I2
sg1689
I4
sg829
I67
sg2304
I3
sg3373
I1
sg166
I1
sg68
I1
sg3169
I1
sg1828
I1
sg2958
I1
sg2537
I2
sg151
I6
sg1091
I1
sg324
I2
sg2738
I1
sg3139
I1
sg2811
I1
sg1607
I4
sg3058
I1
sg2464
I7
sg1782
I1
sg2856
I1
sg202
I2
sg1737
I2
sg2929
I2
sg1452
I2
sg1029
I8
sg111
I3
sg1777
I2
sg1512
I2
sg983
I1
sg3278
I1
sg1279
I10
sg115
I6
sg2065
I2
sg466
I16
sg640
I55
sg1119
I1
sg2277
I1
sg1036
I3
sg2511
I3
sg3009
I1
sg2355
I2
sg262
I28
sg2447
I6
sg1878
I4
sg2732
I1
sg22
I15
sg2452
I4
sg1772
I2
sg403
I39
sg3319
I2
sg2171
I1
sg274
I2
sg546
I3
sg549
I33
sg870
I4
sg1188
I5
sg2376
I1
sg762
I6
sg3112
I1
sg3095
I4
sg1444
I39
sg2348
I1
sg2351
I1
sg3218
I3
sg459
I16
sg1136
I1
sg3000
I2
sg1726
I36
sg16
I64
sg2751
I3
sg1199
I6
sg2202
I4
sg2654
I5
sg149
I10
sg971
I1
sg2852
I2
sg1290
I2
sg3189
I1
sg1939
I2
sg3025
I2
sg952
I2
sg3368
I1
sg3234
I1
sg2331
I2
sg2604
I1
sg268
I4
sg1234
I14
sg304
I124
sg3290
I1
sg2548
I1
sg86
I37
sg1185
I8
sg1402
I21
sg2979
I3
sg2158
I2
sg3261
I1
sg3012
I1
sg774
I134
sg2585
I1
sg1253
I1
sg2423
I1
sg1622
I1
sg1177
I61
sg2510
I2
sg3200
I2
sg1405
I1
sg2949
I1
sg2871
I1
sg2429
I3
sg2656
I1
sg2439
I1
sg2633
I3
sg2780
I1
sg1917
I20
sg2614
I1
sg1469
I1
sg1373
I13
sg2694
I1
sg596
I6
sg2217
I25
sg2357
I1
sg867
I1
sg866
I3
sg479
I1
sg343
I19
sg1977
I1
sg1814
I13
sg1972
I2
sg3336
I1
sg1296
I24
sg40
I32
sg2184
I2
sg1705
I7
sg2844
I1
sg2185
I35
sg51
I15
sg896
I1
sg2288
I5
sg1728
I3
sg1530
I1
sg2777
I2
sg1919
I6
sg598
I8
sg620
I4
sg2409
I5
sg3090
I1
sg671
I1
sg2690
I4
sg1099
I1
sg2649
I4
sg2258
I2
sg2822
I2
sg258
I126
sg722
I47
sg3101
I1
sg2023
I20
sg2854
I1
sg2561
I3
sg1278
I2
sg1763
I3
sg1753
I2
sg922
I1
sg2074
I1
sg664
I1
sg3083
I1
sg128
I5
sg2968
I1
sg1783
I1
sg607
I1
sg1800
I1
sg1053
I2
sg2950
I1
sg2833
I1
sg655
I1
sg3082
I1
sg1404
I3
sg2097
I9
sg1754
I6
sg1612
I1
sg2861
I3
sg3078
I1
sg1841
I1
sg433
I16
sg1542
I3
sg2136
I1
sg204
I1
sg1990
I2
sg2260
I5
sg2275
I12
sg1242
I10
sg519
I5
sg1837
I2
sg1742
I3
sg99
I9
sg2791
I1
sg1875
I4
sg2229
I1
sg1409
I2
sg1668
I7
sg118
I42
sg715
I2
sg1773
I2
sg919
I1
sg632
I8
sg2574
I3
sg2127
I1
sg3114
I1
sg612
I1
sg1014
I12
sg1864
I2
sg2533
I4
sg2727
I3
sg1510
I7
sg345
I1
sg15
I111
sg1952
I1
sg3382
I1
sg1935
I1
sg1673
I9
sg140
I5
sg1395
I1
sg1896
I12
sg2333
I1
sg185
I74
sg1618
I5
sg2387
I2
sg2943
I6
sg766
I6
sg2600
I2
sg293
I10
sg545
I8
sg1926
I2
sg2213
I2
sg1282
I4
sg2179
I5
sg2988
I1
sg1787
I1
sg943
I17
sg2911
I1
sg868
I9
sg3029
I1
sg2945
I1
sg2039
I2
sg1017
I1
sg844
I1
sg1059
I4
sg3337
I1
sg3271
I4
sg227
I3
sg3018
I2
sg2060
I2
sg837
I57
sg843
I3
sg2947
I1
sg2627
I1
sg1031
I2
sg2662
I1
sg2897
I1
sg874
I2
sg588
I1
sg2513
I1
sg3085
I1
sg1433
I8
sg1215
I2
sg2761
I1
sg1669
I1
sg2681
I2
sg884
I15
sg2996
I1
sg2969
I1
sg2995
I1
sg855
I1
sg2962
I1
sg1250
I51
sg914
I5
sg3269
I1
sg2992
I1
sg2102
I1
sg974
I8
sg1745
I2
sg1189
I2
sg1933
I1
sg1765
I2
sg1851
I4
sg2142
I1
sg1006
I36
sg797
I1
sg2196
I1
sg74
I10
sg939
I1
sg3287
I1
sg2325
I3
sg1195
I15
sg2354
I1
sg2141
I7
sg156
I31
sg2610
I1
sg2934
I4
sg1859
I3
sg2414
I1
sg2836
I1
sg3246
I1
sg1465
I1
sg1168
I8
sg346
I33
sg2626
I1
sg580
I11
sg1388
I4
sg2462
I2
sg2591
I2
sg1212
I2
sg2238
I1
sg700
I6
sg3198
I1
sg1224
I8
sg889
I2
sg246
I13
sg394
I31
sg445
I117
sg950
I1
sg1073
I34
sg1461
I1
sg988
I3
sg3338
I2
sg2396
I1
sg2450
I3
sg2359
I1
sg2175
I3
sg1499
I5
sg955
I13
sg260
I1
sg928
I1
sg310
I269
sg2059
I4
sg2121
I4
sg432
I8
sg2641
I9
sg562
I209
sg648
I7
sg892
I2
sg1366
I11
sg199
I33
sg457
I15
sg3323
I3
sg2324
I2
sg1955
I4
sg3361
I1
sg1769
I3
sg1944
I1
sg2983
I1
sg307
I333
sg1306
I1
sg1165
I15
sg2538
I2
sg2156
I4
sg2847
I1
sg1375
I17
sg1398
I4
sg2149
I1
sg999
I9
sg2973
I1
sg898
I1
sg172
I20
sg2503
I1
sg981
I1
sg3238
I2
sg743
I13
sg1420
I2
sg1363
I53
sg1768
I7
sg1708
I6
sg2611
I1
sg2974
I1
sg2909
I1
sg391
I7
sg3162
I1
sg991
I7
sg1064
I6
sg3145
I1
sg2095
I1
sg379
I1
sg1462
I1
sg410
I3
sg677
I15
sg1700
I1
sg2251
I4
sg1155
I2
sg3040
I1
sg601
I1
sg515
I2
sg2774
I1
sg759
I4
sg87
I15
sg1206
I7
sg2842
I1
sg2708
I1
sg2091
I1
sg2860
I1
sg995
I7
sg318
I2
sg2964
I2
sg3043
I3
sg1928
I1
sg1640
I4
sg2889
I1
sg205
I9
sg1532
I9
sg285
I1
sg3314
I1
sg667
I12
sg2589
I2
sg2020
I3
sg1159
I3
sg1424
I19
sg557
I2
sg178
I12
sg1798
I14
sg2267
I4
sg2110
I1
sg325
I2
sg1051
I2
sg2932
I1
sg323
I2
sg2214
I1
sg1556
I3
sg2528
I2
sg972
I1
sg798
I3
sg2519
I1
sg2730
I1
sg389
I10
sg856
I6
sg2919
I2
sg2621
I4
sg3113
I1
sg854
I40
sg2057
I1
sg2395
I1
sg2632
I1
sg2044
I10
sg1506
I1
sg2266
I15
sg2586
I1
sg2016
I6
sg408
I1
sg1795
I3
sg1487
I2
sg1523
I13
sg430
I4
sg443
I72
sg1604
I5
sg1292
I1
sg921
I7
sg2116
I1
sg1447
I14
sg789
I56
sg2529
I2
sg436
I4
sg538
I4
sg252
I100
sg3360
I3
sg3245
I1
sg1063
I13
sg1432
I1
sg741
I1
sg733
I9
sg2054
I8
sg3064
I3
sg2115
I9
sg2760
I1
sg470
I4
sg535
I1
sg2139
I1
sg1400
I20
sg2269
I4
sg3138
I1
sg1107
I1
sg1916
I2
sg2249
I1
sg221
I2
sg1999
I8
sg712
I160
sg2228
I1
sg3103
I1
sg816
I1
sg506
I21
sg3350
I1
sg1884
I3
sg2573
I1
sg1932
I1
sg2220
I1
sg608
I3
sg572
I3
sg3166
I2
sg3111
I1
sg2908
I1
sg1408
I3
sg3369
I1
sg1601
I3
sg769
I1
sg187
I3
sg2772
I1
sg1347
I1
sg1087
I5
sg2026
I3
sg2873
I2
sg2636
I1
sg2090
I19
sg1097
I4
sg2685
I2
sg1239
I4
sg1455
I1
sg1663
I3
sg3187
I1
sg2483
I1
sg3014
I1
sg2203
I1
sg2146
I2
sg269
I2
sg1190
I5
sg2608
I2
sg1033
I1
sg2076
I10
sg3044
I1
sg2195
I2
sg1258
I4
sg1204
I2
sg2577
I1
sg525
I3
sg1830
I1
sg91
I17
sg427
I1
sg1265
I4
sg1139
I3
sg2463
I5
sg3213
I1
sg3357
I2
sg2491
I1
sg828
I3
sg1890
I2
sg3080
I3
sg739
I21
sg3197
I1
sg803
I130
sg1638
I2
sg1751
I29
sg2477
I2
sg478
I2
sg82
I199
sg1543
I3
sg295
I25
sg1788
I1
sg561
I42
sg3342
I1
sg1027
I9
sg80
I3
sg2640
I1
sg920
I31
sg3173
I1
sg110
I7
sg3137
I1
sg435
I8
sg280
I12
sg532
I12
sg2982
I1
sg62
I20
sg2748
I2
sg1369
I10
sg1257
I8
sg2186
I1
sg2602
I1
sg1968
I8
sg179
I5
sg801
I3
sg1856
I5
sg1696
I3
sg3235
I1
sg2647
I4
sg2019
I2
sg1704
I1
sg2544
I1
sg1416
I2
sg503
I4
sg1417
I10
sg1481
I2
sg3284
I1
sg1093
I1
sg1178
I7
sg2824
I2
sg836
I27
sg2951
I1
sg491
I3
sg1584
I7
sg444
I1
sg1451
I30
sg231
I5
sg980
I2
sg1008
I6
sg810
I8
sg1924
I3
sg2961
I1
sg931
I1
sg530
I5
sg3152
I1
sg602
I27
sg1976
I2
sg2488
I12
sg857
I1
sg193
I2
sg134
I14
sg1710
I18
sg1205
I5
sg821
I1
sg2749
I3
sg1894
I11
sg2290
I1
sg925
I3
sg761
I1
sg3102
I1
sg2215
I2
sg12
I13
sg817
I2
sg1698
I10
sg2009
I1
sg98
I1048
sg548
I256
sg1611
I1
sg1681
I1
sg2884
I1
sg878
I1
sg2516
I1
sg968
I1
sg3075
I2
sg724
I1
sg333
I2
sg42
I15
sg2747
I1
sg1578
I1
sg629
I6
sg2918
I1
sg3184
I1
sg2739
I1
sg975
I3
sg1731
I1
sg2129
I2
sg2253
I2
sg215
I11
sg1986
I1
sg2247
I3
sg267
I5
sg228
I3
sg3099
I1
sg1231
I6
sg2657
I9
sg2318
I2
sg714
I2
sg2700
I1
sg2448
I1
sg2880
I2
sg3303
I2
sg1361
I1
sg1596
I5
sg1979
I4
sg1982
I2
sg1460
I3
sg1850
I1
sg2011
I8
sg1583
I44
sg787
I2
sg1533
I1
sg2456
I1
sg2661
I1
sg1383
I3
sg2362
I1
sg3242
I1
sg456
I2
sg319
I17
sg518
I1
sg1820
I2
sg872
I15
sg2398
I1
sg3227
I1
sg2771
I5
sg2954
I1
sg1124
I8
sg1815
I1
sg3264
I1
sg3340
I2
sg2579
I1
sg1350
I4
sg1730
I1
sg208
I25
sg2162
I1
sg1623
I9
sg2132
I3
sg2588
I1
sg2699
I2
sg704
I6
sg849
I1
sg1321
I4
sg1147
I5
sg3356
I1
sg3188
I1
sg3263
I1
sg1103
I2
sg2126
I3
sg3183
I1
sg191
I5
sg1660
I1
sg2695
I1
sg2420
I5
sg2022
I4
sg3134
I3
sg2263
I2
sg1580
I1
sg135
I8
sg1946
I4
sg2424
I1
sg1496
I3
sg225
I14
sg3151
I7
sg3059
I1
sg1267
I12
sg330
I170
sg3206
I1
sg527
I2
sg1102
I2
sg460
I2
sg2885
I1
sg3181
I1
sg1616
I20
sg2282
I3
sg1703
I2
sg1827
I7
sg1372
I1
sg2702
I1
sg1044
I1
sg2033
I1
sg2486
I1
sg1572
I20
sg564
I27
sg2879
I2
sg3292
I2
sg1192
I4
sg462
I8
sg3032
I1
sg1981
I1
sg764
I2
sg1521
I3
sg3074
I1
sg1208
I1
sg347
I1
sg2948
I2
sg2311
I4
sg2422
I4
sg823
I13
sg1524
I7
sg1307
I6
sg1150
I6
sg1423
I15
sg1013
I12
sg2346
I2
sg3026
I1
sg2849
I7
sg201
I4
sg1055
I2
sg501
I7
sg1001
I15
sg2731
I1
sg2042
I1
sg585
I36
sg850
I1
sg1273
I2
sg1052
I1
sg3142
I1
sg2272
I1
sg1194
I5
sg240
I49
sg3203
I1
sg686
I1
sg5
I6527
sg2027
I6
sg3123
I1
sg31
I51
sg2125
I2
sg224
I6
sg3060
I1
sg3317
I1
sg2099
I1
sg196
I61
sg2728
I2
sg1151
I3
sg1318
I7
sg129
I24
sg2651
I2
sg1585
I2
sg1378
I7
sg851
I10
sg1651
I10
sg415
I1
sg2183
I1
sg2367
I7
sg873
I7
sg3065
I1
sg1472
I2
sg2210
I1
sg2218
I1
sg2036
I1
sg651
I4
sg2851
I1
sg909
I6
sg1644
I1
sg3020
I1
sg1978
I3
sg1293
I6
sg2499
I1
sg2168
I18
sg901
I3
sg723
I7
sg3280
I1
sg46
I3
sg2173
I1
sg71
I23
sg1490
I4
sg2665
I1
sg2797
I2
sg2716
I1
sg1312
I10
sg1887
I21
sg1872
I2
sg808
I3
sg3084
I2
sg107
I2651
sg3281
I4
sg1893
I8
sg1104
I1
sg756
I67
sg264
I9
sg3124
I2
sg3232
I1
sg1825
I2
sg2735
I5
sg495
I2
sg1857
I2
sg725
I6
sg1606
I13
sg1950
I2
sg139
I5
sg1636
I1
sg783
I1
sg2086
I2
sg1083
I1
sg3365
I1
sg95
I28
sg2966
I4
sg282
I3
sg1030
I7
sg1453
I10
sg2991
I1
sg2494
I1
sg106
I85
sg2470
I3
sg1386
I4
sg2501
I3
sg2123
I1
sg1621
I1
sg1847
I1
sg2935
I2
sg2475
I5
sg3346
I1
sg2128
I2
sg2307
I1
sg3170
I1
sg2531
I4
sg1833
I5
sg33
I408
sg3236
I1
sg1620
I20
sg1778
I1
sg1284
I6
sg2963
I1
sg1658
I3
sg3117
I1
sg1688
I2
sg2084
I1
sg3209
I1
sg2881
I2
sg88
I9
sg1483
I2
sg616
I25
sg2594
I1
sg2740
I3
sg1836
I14
sg578
I87
sg216
I2
sg2841
I1
sg3374
I1
sg1471
I2
sg827
I11
sg559
I6
sg356
I30
sg2262
I1
sg2808
I1
sg3067
I1
sg3168
I1
sg1610
I2
sg144
I4
sg1630
I5
sg1736
I1
sg2534
I6
sg1332
I1
sg1809
I1
sg3079
I1
sg2207
I4
sg956
I2
sg2864
I1
sg1435
I4
sg375
I22
sg3157
I1
sg3007
I1
sg773
I2
sg998
I11
sg2814
I1
sg954
I16
sg1654
I64
sg2236
I1
sg3260
I1
sg32
I32
sg1657
I1
sg34
I1562
sg1963
I1
sg1407
I3
sg190
I8
sg1160
I3
sg3047
I1
sg3150
I1
sg2317
I1
sg69
I3
sg1368
I1
sg2248
I4
sg1196
I4
sg795
I30
sg2855
I4
sg2437
I9
sg2419
I1
sg2765
I1
sg3325
I1
sg2957
I1
sg1646
I2
sg942
I2
sg243
I2
sg1869
I18
sg2352
I5
sg1058
I1
sg1470
I3
sg3298
I1
sg2634
I1
sg3331
I1
sg935
I3
sg1108
I10
sg1715
I2
sg2418
I1
sg894
I37
sg3024
I1
sg3063
I3
sg27
I41
sg1414
I5
sg1937
I1
sg2505
I1
sg3086
I2
sg2990
I1
sg1229
I28
sg2270
I3
sg64
I25
sg2382
I6
sg2096
I2
sg730
I3
sg374
I45
sg1272
I1
sg2046
I1
sg2986
I1
sg1781
I2
sg1755
I2
sg439
I1
sg141
I1
sg1367
I44
sg3041
I1
sg472
I6
ss.