(dp0
Vindex2word
p1
(dp2
I0
S'SOS'
p3
sI1
S'EOS'
p4
sI2
Vi
p5
sI3
Vm
p6
sI4
V.
p7
sI5
Vok
p8
sI6
Vfat
p9
sI7
Vfit
p10
sI8
Vhit
p11
sI9
V!
p12
sI10
Vill
p13
sI11
Vsad
p14
sI12
Vshy
p15
sI13
Vwet
p16
sI14
Vhe
p17
sI15
Vs
p18
sI16
Vam
p19
sI17
Vback
p20
sI18
Vbald
p21
sI19
Vbusy
p22
sI20
Vcalm
p23
sI21
Vcold
p24
sI22
Vdeaf
p25
sI23
Vdone
p26
sI24
Vfast
p27
sI25
Vfine
p28
sI26
Vfree
p29
sI27
Vfull
p30
sI28
Vglad
p31
sI29
Vhome
p32
sI30
Vlate
p33
sI31
Vlazy
p34
sI32
Vokay
p35
sI33
Vsafe
p36
sI34
Vsick
p37
sI35
Vsure
p38
sI36
Vtall
p39
sI37
Vthin
p40
sI38
Vtidy
p41
sI39
Vugly
p42
sI40
Vweak
p43
sI41
Vwell
p44
sI42
Vis
p45
sI43
Vold
p46
sI44
Vgood
p47
sI45
Vrich
p48
sI46
Vhere
p49
sI47
Vcan
p50
sI48
Vrun
p51
sI49
Vski
p52
sI50
Vwas
p53
sI51
Vnew
p54
sI52
Va
p55
sI53
Vcop
p56
sI54
Vman
p57
sI55
Valive
p58
sI56
Valone
p59
sI57
Varmed
p60
sI58
Vawake
p61
sI59
Vblind
p62
sI60
Vbroke
p63
sI61
Vcrazy
p64
sI62
Vcured
p65
sI63
Vdrunk
p66
sI64
Vdying
p67
sI65
Vearly
p68
sI66
Vfirst
p69
sI67
Vfussy
p70
sI68
Vgoing
p71
sI69
Vloyal
p72
sI70
Vlucky
p73
sI71
Vlying
p74
sI72
Vquiet
p75
sI73
Vready
p76
sI74
Vright
p77
sI75
Vsober
p78
sI76
Vsorry
p79
sI77
Vstuck
p80
sI78
Vtimid
p81
sI79
Vtired
p82
sI80
Vtough
p83
sI81
Vyours
p84
sI82
Vshe
p85
sI83
Vhot
p86
sI84
Vwe
p87
sI85
Vre
p88
sI86
Vkind
p89
sI87
Vpoor
p90
sI88
Vsmart
p91
sI89
Vhuman
p92
sI90
Vcome
p93
sI91
Vcook
p94
sI92
Vjump
p95
sI93
Vread
p96
sI94
Vsing
p97
sI95
Vstay
p98
sI96
Vswim
p99
sI97
Vwait
p100
sI98
Vwalk
p101
sI99
Vt
p102
sI100
Vgo
p103
sI101
Vaway
p104
sI102
Vlost
p105
sI103
Vfrench
p106
sI104
Vkorean
p107
sI105
Vhero
p108
sI106
Vliar
p109
sI107
Vbaking
p110
sI108
Vbetter
p111
sI109
Vbuying
p112
sI110
Vchubby
p113
sI111
Veating
p114
sI112
Vfamous
p115
sI113
Vfaster
p116
sI114
Vflabby
p117
sI115
Vgreedy
p118
sI116
Vhiding
p119
sI117
Vhonest
p120
sI118
Vhumble
p121
sI119
Vhungry
p122
sI120
Vimmune
p123
sI121
Vin
p124
sI122
Vbed
p125
sI123
Vjoking
p126
sI124
Vloaded
p127
sI125
Vlonely
p128
sI126
Vlosing
p129
sI127
Vmoving
p130
sI128
Vnormal
p131
sI129
Vpaying
p132
sI130
Vpooped
p133
sI131
Vrested
p134
sI132
Vruined
p135
sI133
Vshaken
p136
sI134
Vsingle
p137
sI135
Vskinny
p138
sI136
Vsleepy
p139
sI137
Vsneaky
p140
sI138
Vstrict
p141
sI139
Vstrong
p142
sI140
Vthirty
p143
sI141
Vwasted
p144
sI142
Vsmiled
p145
sI143
Vnice
p146
sI144
Vare
p147
sI145
Vmen
p148
sI146
Veven
p149
sI147
Vsunk
p150
sI148
Vyou
p151
sI149
Vbad
p152
sI150
Vbig
p153
sI151
Vfun
p154
sI152
Veight
p155
sI153
Vhated
p156
sI154
Vnasty
p157
sI155
Vyoung
p158
sI156
Vhunk
p159
sI157
Vjerk
p160
sI158
Vnerd
p161
sI159
Vslob
p162
sI160
Vasleep
p163
sI161
Vcoming
p164
sI162
Vcrying
p165
sI163
Vfaking
p166
sI164
Vmy
p167
sI165
Vage
p168
sI166
Vnot
p169
sI167
Vmonk
p170
sI168
Vtaller
p171
sI169
Vdance
p172
sI170
Vdo
p173
sI171
Vit
p174
sI172
Veat
p175
sI173
Vsay
p176
sI174
Vsee
p177
sI175
Vwin
p178
sI176
Vbored
p179
sI177
Vdizzy
p180
sI178
Vfired
p181
sI179
Vhired
p182
sI180
Vmoved
p183
sI181
Vnaive
p184
sI182
Vthere
p185
sI183
Vwrong
p186
sI184
Vwashed
p187
sI185
Vtoo
p188
sI186
Vfinnish
p189
sI187
Vitalian
p190
sI188
Vbaker
p191
sI189
Vall
p192
sI190
Vset
p193
sI191
Vashamed
p194
sI192
Vat
p195
sI193
Vwork
p196
sI194
Vbaffled
p197
sI195
Vblessed
p198
sI196
Vcareful
p199
sI197
Vcertain
p200
sI198
Vchicken
p201
sI199
Vcorrect
p202
sI200
Vcurious
p203
sI201
Vdancing
p204
sI202
Vdieting
p205
sI203
Vdriving
p206
sI204
Vengaged
p207
sI205
Vexcited
p208
sI206
Vfasting
p209
sI207
Vfinicky
p210
sI208
Vfrantic
p211
sI209
Vfurious
p212
sI210
Vhealthy
p213
sI211
Vhumming
p214
sI212
Vluck
p215
sI213
Vjealous
p216
sI214
Vjittery
p217
sI215
Vkidding
p218
sI216
Vleaving
p219
sI217
Vmarried
p220
sI218
Vno
p221
sI219
Vfool
p222
sI220
Vmad
p223
sI221
Von
p224
sI222
Vduty
p225
sI223
Vpatient
p226
sI224
Vpopular
p227
sI225
Vpsyched
p228
sI226
Vpsychic
p229
sI227
Vpuzzled
p230
sI228
Vreading
p231
sI229
Vrelaxed
p232
sI230
Vretired
p233
sI231
Vselfish
p234
sI232
Vserious
p235
sI233
Vshocked
p236
sI234
Vsincere
p237
sI235
Vsloshed
p238
sI236
Vso
p239
sI237
Vstarved
p240
sI238
Vstaying
p241
sI239
Vstuffed
p242
sI240
Vstunned
p243
sI241
Vtalking
p244
sI242
Vteasing
p245
sI243
Vthirsty
p246
sI244
Vthrough
p247
sI245
Vtouched
p248
sI246
Vunhappy
p249
sI247
Vunlucky
p250
sI248
Vwealthy
p251
sI249
Vwinning
p252
sI250
Vworking
p253
sI251
Vworried
p254
sI252
Vcurt
p255
sI253
Vdead
p256
sI254
Vdog
p257
sI255
Vfox
p258
sI256
Vthey
p259
sI257
Vangry
p260
sI258
Vhappy
p261
sI259
Vsaved
p262
sI260
Vtwins
p263
sI261
Vcool
p264
sI262
Vfair
p265
sI263
Vnuts
p266
sI264
Vrude
p267
sI265
Vpoet
p268
sI266
Vcranky
p269
sI267
Vheroic
p270
sI268
Venglish
p271
sI269
Vbigot
p272
sI270
Vpain
p273
sI271
Vout
p274
sI272
Vnow
p275
sI273
Vcute
p276
sI274
Vfix
p277
sI275
Vmanage
p278
sI276
Vhelp
p279
sI277
Vmove
p280
sI278
Vbeaten
p281
sI279
Vburned
p282
sI280
Vcanned
p283
sI281
Vframed
p284
sI282
Vstupid
p285
sI283
Vwarned
p286
sI284
Vcoward
p287
sI285
Vdoctor
p288
sI286
Vfarmer
p289
sI287
Vpurist
p290
sI288
Vaddicted
p291
sI289
Vears
p292
sI290
Van
p293
sI291
Vadult
p294
sI292
Vagent
p295
sI293
Vbleeding
p296
sI294
Vconfused
p297
sI295
Vcreative
p298
sI296
Vcultured
p299
sI297
Vdivorced
p300
sI298
Vdrowning
p301
sI299
Veighteen
p302
sI300
Vfaithful
p303
sI301
Vfamished
p304
sI302
Vfearless
p305
sI303
Vfighting
p306
sI304
Vfinished
p307
sI305
Vfreezing
p308
sI306
Vgrounded
p309
sI307
Vgullible
p310
sI308
Vhomesick
p311
sI309
Vhungover
p312
sI310
Vparis
p313
sI311
Vinnocent
p314
sI312
Vinvolved
p315
sI313
Vmanaging
p316
sI314
Vrebel
p317
sI315
Vsaint
p318
sI316
Vdumb
p319
sI317
Vevil
p320
sI318
Vhurt
p321
sI319
Vmean
p322
sI320
Voff
p323
sI321
Voffended
p324
sI322
Voutraged
p325
sI323
Vpowerful
p326
sI324
Vprepared
p327
sI325
Vpunctual
p328
sI326
Vrational
p329
sI327
Vreformed
p330
sI328
Vreliable
p331
sI329
Vrestless
p332
sI330
Vruthless
p333
sI331
Vshooting
p334
sI332
Vsleeping
p335
sI333
Vspeaking
p336
sI334
Vstarving
p337
sI335
Vstubborn
p338
sI336
Vthe
p339
sI337
Vboss
p340
sI338
Vthinking
p341
sI339
Vthorough
p342
sI340
Vthrilled
p343
sI341
Vticklish
p344
sI342
Vtruthful
p345
sI343
Vunbiased
p346
sI344
Vupstairs
p347
sI345
Vvery
p348
sI346
Vworn
p349
sI347
Vsharp
p350
sI348
Vshot
p351
sI349
Vhim
p352
sI350
Vshrieked
p353
sI351
Vstood
p354
sI352
Vup
p355
sI353
Vsued
p356
sI354
Vboys
p357
sI355
Vcops
p358
sI356
Vgone
p359
sI357
Vmine
p360
sI358
Varabs
p361
sI359
Vteam
p362
sI360
Vadults
p363
sI361
Vwar
p364
sI362
Vbiased
p365
sI363
Vclosed
p366
sI364
Vdating
p367
sI365
Vdoomed
p368
sI366
Vinside
p369
sI367
Vtrying
p370
sI368
Vbossy
p371
sI369
Vcruel
p372
sI370
Vfunny
p373
sI371
Vgross
p374
sI372
Vmoody
p375
sI373
Vsilly
p376
sI374
Vupset
p377
sI375
Vweird
p378
sI376
Vbritish
p379
sI377
Vthief
p380
sI378
Vfoolish
p381
sI379
Vtype
p382
sI380
Vrunning
p383
sI381
Vskating
p384
sI382
Vgrouch
p385
sI383
Vjesuit
p386
sI384
Vsenior
p387
sI385
Vtycoon
p388
sI386
Vadorable
p389
sI387
Vafter
p390
sI388
Vme
p391
sI389
Vannoying
p392
sI390
Vdemented
p393
sI391
Vtokyo
p394
sI392
Vinsecure
p395
sI393
Vstudying
p396
sI394
Vslow
p397
sI395
Vyour
p398
sI396
Vson
p399
sI397
Vamerican
p400
sI398
Vjapanese
p401
sI399
Vmuslim
p402
sI400
Vrunner
p403
sI401
Vdiabetic
p404
sI402
Vbuy
p405
sI403
Vone
p406
sI404
Vthis
p407
sI405
Vexplain
p408
sI406
Vfeel
p409
sI407
Vsurvive
p410
sI408
Vleave
p411
sI409
Vsleep
p412
sI410
Vsmoke
p413
sI411
Vcanceled
p414
sI412
Vcrushed
p415
sI413
Vdrugged
p416
sI414
Vinvited
p417
sI415
Vpleased
p418
sI416
Vsinging
p419
sI417
Vtempted
p420
sI418
Vtrapped
p421
sI419
Vunarmed
p422
sI420
Vwasn
p423
sI421
Vstudent
p424
sI422
Vteacher
p425
sI423
Vadaptable
p426
sI424
Vafraid
p427
sI425
Vambitious
p428
sI426
Vartist
p429
sI427
Vorphan
p430
sI428
Vattentive
p431
sI429
Vavailable
p432
sI430
Vbeautiful
p433
sI431
Vconcerned
p434
sI432
Vconfident
p435
sI433
Vcontented
p436
sI434
Vconvinced
p437
sI435
Vdepressed
p438
sI436
Vdesperate
p439
sI437
Vdifferent
p440
sI438
Vdisgusted
p441
sI439
Veasygoing
p442
sI440
Vexhausted
p443
sI441
Vforgetful
p444
sI442
Vtom
p445
sI443
Vhung
p446
sI444
Vover
p447
sI445
Vimpatient
p448
sI446
Vimportant
p449
sI447
Vimpressed
p450
sI448
Vimpulsive
p451
sI449
Vboston
p452
sI450
Vdanger
p453
sI451
Vintrigued
p454
sI452
Vjust
p455
sI453
Vlistening
p456
sI454
Vmotivated
p457
sI455
Vexpert
p458
sI456
Vfan
p459
sI457
Vobese
p460
sI458
Vshort
p461
sI459
Vobservant
p462
sI460
Vdiet
p463
sI461
Vway
p464
sI462
Vplastered
p465
sI463
Vpowerless
p466
sI464
Vrealistic
p467
sI465
Vresentful
p468
sI466
Vresilient
p469
sI467
Vsatisfied
p470
sI468
Vsaying
p471
sI469
Vsensitive
p472
sI470
Vsurprised
p473
sI471
Vsurviving
p474
sI472
Vterrified
p475
sI473
Vuninsured
p476
sI474
Vunmarried
p477
sI475
Vvoting
p478
sI476
Vfalling
p479
sI477
Vtwin
p480
sI478
Vactive
p481
sI479
Vgentle
p482
sI480
Vseems
p483
sI481
Vcutie
p484
sI482
Vmodel
p485
sI483
Vawesome
p486
sI484
Vasian
p487
sI485
Vbrave
p488
sI486
Vclean
p489
sI487
Vsmall
p490
sI488
Vspies
p491
sI489
Vgroup
p492
sI490
Vanxious
p493
sI491
Vcousins
p494
sI492
Vdoctors
p495
sI493
Vfriends
p496
sI494
Vlove
p497
sI495
Vsync
p498
sI496
Vtown
p499
sI497
Vsinking
p500
sI498
Vsmashed
p501
sI499
Vspecial
p502
sI500
Vstalled
p503
sI501
Vuseless
p504
sI502
Vwaiting
p505
sI503
Vwinners
p506
sI504
Vdoll
p507
sI505
Vsnob
p508
sI506
Vboring
p509
sI507
Vbright
p510
sI508
Vclever
p511
sI509
Vcrafty
p512
sI510
Vcreepy
p513
sI511
Vgrumpy
p514
sI512
Vinsane
p515
sI513
Vpretty
p516
sI514
Vunfair
p517
sI515
Vcanadian
p518
sI516
Vgenius
p519
sI517
Vwriter
p520
sI518
Vactor
p521
sI519
Vbankrupt
p522
sI520
Vuncle
p523
sI521
Voutgoing
p524
sI522
Vbit
p525
sI523
Vgambler
p526
sI524
Vslacker
p527
sI525
Vauthor
p528
sI526
Vex
p529
sI527
Vcon
p530
sI528
Voutlaw
p531
sI529
Vhenpecked
p532
sI530
Vprison
p533
sI531
Vfriend
p534
sI532
Vopen
p535
sI533
Vhungarian
p536
sI534
Vboy
p537
sI535
Vtourist
p538
sI536
Vlondon
p539
sI537
Vspot
p540
sI538
Vtoday
p541
sI539
Vhear
p542
sI540
Vprove
p543
sI541
Vget
p544
sI542
Vuse
p545
sI543
Vattacked
p546
sI544
Vbarefoot
p547
sI545
Vbluffing
p548
sI546
Vcaptured
p549
sI547
Vcareless
p550
sI548
Vcleaning
p551
sI549
Vdetained
p552
sI550
Vgrateful
p553
sI551
Vimpolite
p554
sI552
Voutdoors
p555
sI553
Vpardoned
p556
sI554
Vwatching
p557
sI555
Vwish
p558
sI556
Vcould
p559
sI557
Vguy
p560
sI558
Vmusician
p561
sI559
Vreal
p562
sI560
Vsalesman
p563
sI561
Vagainst
p564
sI562
Vthumbs
p565
sI563
Vastonished
p566
sI564
Vbehind
p567
sI565
Vbeing
p568
sI566
Vused
p569
sI567
Vcontagious
p570
sI568
Vdehydrated
p571
sI569
Vdependable
p572
sI570
Vdevastated
p573
sI571
Vdoing
p574
sI572
Vdownstairs
p575
sI573
Vexercising
p576
sI574
Vfarsighted
p577
sI575
Vfascinated
p578
sI576
Vfiring
p579
sI577
Vfrom
p580
sI578
Vkyoto
p581
sI579
Vhaving
p582
sI580
Villiterate
p583
sI581
Vcar
p584
sI582
Vinterested
p585
sI583
Vmaking
p586
sI584
Vtea
p587
sI585
Vmeditating
p588
sI586
Vmethodical
p589
sI587
Vquitter
p590
sI588
Vamused
p591
sI589
Vbitter
p592
sI590
Vguilty
p593
sI591
Vracist
p594
sI592
Vscared
p595
sI593
Venough
p596
sI594
Vholiday
p597
sI595
Vof
p598
sI596
Voptimistic
p599
sI597
Vgas
p600
sI598
Vprejudiced
p601
sI599
Vrather
p602
sI600
Vreally
p603
sI601
Vreasonable
p604
sI602
Vremodeling
p605
sI603
Vstill
p606
sI604
Vsuccessful
p607
sI605
Vkiller
p608
sI606
Voldest
p609
sI607
Vundressing
p610
sI608
Vunemployed
p611
sI609
Vuntalented
p612
sI610
Vto
p613
sI611
Vvegetarian
p614
sI612
Vwide
p615
sI613
Vnurse
p616
sI614
Vawkward
p617
sI615
Visn
p618
sI616
Vgun
p619
sI617
Vsings
p620
sI618
Vsmells
p621
sI619
Vswims
p622
sI620
Vbeauty
p623
sI621
Vhottie
p624
sI622
Vlooker
p625
sI623
Vangel
p626
sI624
Vpregnant
p627
sI625
Vloud
p628
sI626
Vbabies
p629
sI627
Vidiots
p630
sI628
Vcouple
p631
sI629
Vfamily
p632
sI630
Vbrothers
p633
sI631
Vescaping
p634
sI632
Vhelpless
p635
sI633
Vobedient
p636
sI634
Vpartners
p637
sI635
Vquitting
p638
sI636
Vretiring
p639
sI637
Vstanding
p640
sI638
Vstudents
p641
sI639
Vbest
p642
sI640
Vlast
p643
sI641
Vsame
p644
sI642
Vmorons
p645
sI643
Varen
p646
sI644
Vprude
p647
sI645
Vamazing
p648
sI646
Vamusing
p649
sI647
Vcallous
p650
sI648
Velusive
p651
sI649
Vprecise
p652
sI650
Vpro
p653
sI651
Vwelcome
p654
sI652
Vdreamer
p655
sI653
Vpainter
p656
sI654
Vpaid
p657
sI655
Vcomedian
p658
sI656
Vfrat
p659
sI657
Vfreshman
p660
sI658
Vgardener
p661
sI659
Vnewcomer
p662
sI660
Vslowpoke
p663
sI661
Vsouthpaw
p664
sI662
Vhelping
p665
sI663
Vhusband
p666
sI664
Vpartner
p667
sI665
Vyet
p668
sI666
Vhis
p669
sI667
Vphotogenic
p670
sI668
Vbachelor
p671
sI669
Vegypt
p672
sI670
Vtrouble
p673
sI671
Vdrive
p674
sI672
Vus
p675
sI673
Vhandle
p676
sI674
Vbe
p677
sI675
Vbear
p678
sI676
Vbreathe
p679
sI677
Vcompete
p680
sI678
Vthat
p681
sI679
Vfake
p682
sI680
Vfind
p683
sI681
Vgive
p684
sI682
Vkeep
p685
sI683
Vlet
p686
sI684
Vmake
p687
sI685
Vassaulted
p688
sI686
Vborn
p689
sI687
Vconvicted
p690
sI688
Vdismissed
p691
sI689
Vhorrified
p692
sI690
Vcharge
p693
sI691
Vkidnapped
p694
sI692
Vpatrol
p695
sI693
Vpetrified
p696
sI694
Vskeptical
p697
sI695
Vazerbaijani
p698
sI696
Vtv
p699
sI697
Vaddict
p700
sI698
Vtipsy
p701
sI699
Vforeigner
p702
sI700
Vhousewife
p703
sI701
Vmasochist
p704
sI702
Vnight
p705
sI703
Vowl
p706
sI704
Vable
p707
sI705
Vabout
p708
sI706
Vadventurous
p709
sI707
Vengineer
p710
sI708
Vplace
p711
sI709
Vbegging
p712
sI710
Vcalling
p713
sI711
Vcatching
p714
sI712
Vcelebrating
p715
sI713
Vcleaned
p716
sI714
Vcolor
p717
sI715
Vcomfortable
p718
sI716
Vcooperating
p719
sI717
Vcracking
p720
sI718
Vembarrassed
p721
sI719
Vfeeling
p722
sI720
Vlow
p723
sI721
Vbrazil
p724
sI722
Vfrance
p725
sI723
Vturkey
p726
sI724
Vzambia
p727
sI725
Vgetting
p728
sI726
Vhardworking
p729
sI727
Vheartbroken
p730
sI728
Vhurry
p731
sI729
Vinterfering
p732
sI730
Vintroverted
p733
sI731
Vleft
p734
sI732
Vhanded
p735
sI733
Vnearsighted
p736
sI734
Vneeded
p737
sI735
Vchild
p738
sI736
Vcrook
p739
sI737
Vrobot
p740
sI738
Valarmed
p741
sI739
Varguing
p742
sI740
Vnervous
p743
sI741
Vperfect
p744
sI742
Vvacation
p745
sI743
Vonly
p746
sI744
Vammo
p747
sI745
Vpersevering
p748
sI746
Vquite
p749
sI747
Vreplaceable
p750
sI748
Vresourceful
p751
sI749
Vspontaneous
p752
sI750
Vsuch
p753
sI751
Vsympathetic
p754
sI752
Vcaptain
p755
sI753
Vsurgeon
p756
sI754
Vtruly
p757
sI755
Vtrustworthy
p758
sI756
Vunambitious
p759
sI757
Vunconvinced
p760
sI758
Vmodest
p761
sI759
Vlawyer
p762
sI760
Vsister
p763
sI761
Vsinger
p764
sI762
Vtypist
p765
sI763
Vgraceful
p766
sI764
Vscolded
p767
sI765
Vslapped
p768
sI766
Vsounded
p769
sI767
Vstabbed
p770
sI768
Vassertive
p771
sI769
Vroll
p772
sI770
Vactors
p773
sI771
Vmelons
p774
sI772
Vanimals
p775
sI773
Voutside
p776
sI774
Vsimilar
p777
sI775
Vsmiling
p778
sI776
Vwith
p779
sI777
Vsons
p780
sI778
Vteachers
p781
sI779
Vcanadians
p782
sI780
Vboth
p783
sI781
Vcomedians
p784
sI782
Vcommitted
p785
sI783
Vdedicated
p786
sI784
Vfixing
p787
sI785
Vflattered
p788
sI786
Vgardeners
p789
sI787
Vgentlemen
p790
sI788
Vgiving
p791
sI789
Vincorrect
p792
sI790
Vnewcomers
p793
sI791
Vnewlyweds
p794
sI792
Vfools
p795
sI793
Vpast
p796
sI794
Vprisoners
p797
sI795
Vresigning
p798
sI796
Vseparated
p799
sI797
Vsurvivors
p800
sI798
Vclose
p801
sI799
Vunrelated
p802
sI800
Vnaughty
p803
sI801
Vtallest
p804
sI802
Vidiot
p805
sI803
Varrogant
p806
sI804
Vblushing
p807
sI805
Vcharming
p808
sI806
Vcheating
p809
sI807
Vdisloyal
p810
sI808
Vforgiven
p811
sI809
Vhorrible
p812
sI810
Vmistaken
p813
sI811
Venemy
p814
sI812
Vpathetic
p815
sI813
Vpicky
p816
sI814
Vsweet
p817
sI815
Vstalling
p818
sI816
Vtalented
p819
sI817
Vacrobat
p820
sI818
Vdistracted
p821
sI819
Vher
p822
sI820
Vpajamas
p823
sI821
Vkid
p824
sI822
Vbrother
p825
sI823
Vnever
p826
sI824
Vliked
p827
sI825
Vbartender
p828
sI826
Vcat
p829
sI827
Vlover
p830
sI828
Vgentleman
p831
sI829
Vgrown
p832
sI830
Vhistorian
p833
sI831
Vnonsmoker
p834
sI832
Vsophomore
p835
sI833
Vside
p836
sI834
Vgot
p837
sI835
Vflu
p838
sI836
Vfor
p839
sI837
Vclass
p840
sI838
Vintelligent
p841
sI839
Vstruck
p842
sI840
Vlike
p843
sI841
Vminded
p844
sI842
Vunconscious
p845
sI843
Vfather
p846
sI844
Vprofessor
p847
sI845
Vvolunteer
p848
sI846
Vcooking
p849
sI847
Vdumbfounded
p850
sI848
Vrussia
p851
sI849
Vfrying
p852
sI850
Vfish
p853
sI851
Vtime
p854
sI852
Vweekly
p855
sI853
Vreschedule
p856
sI854
Vbudge
p857
sI855
Vcomplain
p858
sI856
Vmeat
p859
sI857
Vpork
p860
sI858
Vjoin
p861
sI859
Vreach
p862
sI860
Vremember
p863
sI861
Vshow
p864
sI862
Vstand
p865
sI863
Vstop
p866
sI864
Vcannot
p867
sI865
Vwhistle
p868
sI866
Vdumbstruck
p869
sI867
Vfrightened
p870
sI868
Vfrustrated
p871
sI869
Vthen
p872
sI870
Vhumiliated
p873
sI871
Vday
p874
sI872
Vspeechless
p875
sI873
Vthreatened
p876
sI874
Vunprepared
p877
sI875
Vfeet
p878
sI876
Vthem
p879
sI877
Vyears
p880
sI878
Vcousin
p881
sI879
Vbank
p882
sI880
Vclerk
p883
sI881
Vshutterbug
p884
sI882
Valready
p885
sI883
Valways
p886
sI884
Vambidextrous
p887
sI885
Vbeach
p888
sI886
Vbetween
p889
sI887
Vjobs
p890
sI888
Vby
p891
sI889
Vdisappointed
p892
sI890
Vdissatisfied
p893
sI891
Vlunch
p894
sI892
Vfairly
p895
sI893
Vfreaking
p896
sI894
Vamerica
p897
sI895
Vcroatia
p898
sI896
Vengland
p899
sI897
Vromania
p900
sI898
Vtry
p901
sI899
Vhomeschooled
p902
sI900
Vhousesitting
p903
sI901
Vattic
p904
sI902
Vhouse
p905
sI903
Vinviting
p906
sI904
Vlooking
p907
sI905
Vkilling
p908
sI906
Vbeggar
p909
sI907
Vbragging
p910
sI908
Vcounting
p911
sI909
Vdreaming
p912
sI910
Vparanoid
p913
sI911
Vwhy
p914
sI912
Vsweating
p915
sI913
Videas
p916
sI914
Vshape
p917
sI915
Voverreacting
p918
sI916
Vproud
p919
sI917
Vstronger
p920
sI918
Vsuper
p921
sI919
Vvolunteering
p922
sI920
Vpianist
p923
sI921
Vobstinate
p924
sI922
Vwise
p925
sI923
Vsaid
p926
sI924
Vgoodbye
p927
sI925
Vsmokes
p928
sI926
Vlot
p929
sI927
Vspoke
p930
sI928
Vwisely
p931
sI929
Vstared
p932
sI930
Vstartled
p933
sI931
Vstudies
p934
sI932
Vhard
p935
sI933
Vrussian
p936
sI934
Vartists
p937
sI935
Vsingers
p938
sI936
Vtraitors
p939
sI937
Vunique
p940
sI938
Vclassmates
p941
sI939
Vdownsizing
p942
sI940
Vdown
p943
sI941
Veast
p944
sI942
Vwest
p945
sI943
Vhalf
p946
sI944
Vhistorians
p947
sI945
Vcollege
p948
sI946
Vcontrol
p949
sI947
Vlifeguards
p950
sI948
Vour
p951
sI949
Vown
p952
sI950
Vsurrounded
p953
sI951
Vtaking
p954
sI952
Vowners
p955
sI953
Vchildren
p956
sI954
Vderanged
p957
sI955
Vfabulous
p958
sI956
Vgorgeous
p959
sI957
Vhopeless
p960
sI958
Vblame
p961
sI959
Vtraitor
p962
sI960
Vconceited
p963
sI961
Vcourteous
p964
sI962
Vfortunate
p965
sI963
Vobnoxious
p966
sI964
Vshivering
p967
sI965
Vtalkative
p968
sI966
Vtense
p969
sI967
Vunethical
p970
sI968
Vwonderful
p971
sI969
Veater
p972
sI970
Vbiologist
p973
sI971
Vdaredevil
p974
sI972
Vdetective
p975
sI973
Vdramatist
p976
sI974
Vphysicist
p977
sI975
Vscientist
p978
sI976
Vforty
p979
sI977
Vdesk
p980
sI978
Vbeyond
p981
sI979
Vhope
p982
sI980
Vbusiness
p983
sI981
Vincompetent
p984
sI982
Vinfluential
p985
sI983
Vteaching
p986
sI984
Vunrealistic
p987
sI985
Vwalking
p988
sI986
Vjournalist
p989
sI987
Vmovie
p990
sI988
Vbuff
p991
sI989
Vtimer
p992
sI990
Vundergrad
p993
sI991
Vdeep
p994
sI992
Vdebt
p995
sI993
Vwater
p996
sI994
Varrived
p997
sI995
Vand
p998
sI996
Vraking
p999
sI997
Vquick
p1000
sI998
Vsound
p1001
sI999
Vswimming
p1002
sI1000
Vtickled
p1003
sI1001
Vpink
p1004
sI1002
Vtrusting
p1005
sI1003
Vperson
p1006
sI1004
Valmost
p1007
sI1005
Vbread
p1008
sI1006
Vmath
p1009
sI1007
Vdie
p1010
sI1008
Vcomfort
p1011
sI1009
Vhardly
p1012
sI1010
Vplay
p1013
sI1011
Vchopin
p1014
sI1012
Vtennis
p1015
sI1013
Vprotect
p1016
sI1014
Vafford
p1017
sI1015
Vlips
p1018
sI1016
Vrisk
p1019
sI1017
Vdaydreaming
p1020
sI1018
Vdefenseless
p1021
sI1019
Vdiscouraged
p1022
sI1020
Vdiscredited
p1023
sI1021
Vroom
p1024
sI1022
Vmugged
p1025
sI1023
Vknees
p1026
sI1024
Voutnumbered
p1027
sI1025
Voverwhelmed
p1028
sI1026
Vtrespassing
p1029
sI1027
Vflirting
p1030
sI1028
Vinformed
p1031
sI1029
Vlittle
p1032
sI1030
Vgirl
p1033
sI1031
Vsalesperson
p1034
sI1032
Vtotal
p1035
sI1033
Vwreck
p1036
sI1034
Vspeak
p1037
sI1035
Vmyself
p1038
sI1036
Vas
p1039
sI1037
Vschool
p1040
sI1038
Vmercy
p1041
sI1039
Vaware
p1042
sI1040
Vawfully
p1043
sI1041
Vwatched
p1044
sI1042
Vconcentrating
p1045
sI1043
Vextremely
p1046
sI1044
Vflabbergasted
p1047
sI1045
Vbulgaria
p1048
sI1046
Vcolombia
p1049
sI1047
Vcity
p1050
sI1048
Vdid
p1051
sI1049
Vgarden
p1052
sI1050
Virreplaceable
p1053
sI1051
Vguessing
p1054
sI1052
Vweight
p1055
sI1053
Vmonster
p1056
sI1054
Vsoldier
p1057
sI1055
Vdangerous
p1058
sI1056
Vrush
p1059
sI1057
Vmiserable
p1060
sI1058
Vpanicking
p1061
sI1059
Vpersuaded
p1062
sI1060
Vcoach
p1063
sI1061
Vbaby
p1064
sI1062
Vmaid
p1065
sI1063
Voverworked
p1066
sI1064
Vsore
p1067
sI1065
Vsort
p1068
sI1066
Vdubious
p1069
sI1067
Vbath
p1070
sI1068
Vtotally
p1071
sI1069
Vuncomfortable
p1072
sI1070
Vneighbor
p1073
sI1071
Vbeginner
p1074
sI1072
Vaggressive
p1075
sI1073
Vattractive
p1076
sI1074
Vunsociable
p1077
sI1075
Vsells
p1078
sI1076
Vflowers
p1079
sI1077
Vspeaks
p1080
sI1078
Vloudly
p1081
sI1079
Vfashionable
p1082
sI1080
Vpoint
p1083
sI1081
Vhyperactive
p1084
sI1082
Vdaughter
p1085
sI1083
Valike
p1086
sI1084
Vliars
p1087
sI1085
Vcannibals
p1088
sI1086
Vexpensive
p1089
sI1087
Vguys
p1090
sI1088
Vundamaged
p1091
sI1089
Vaustralian
p1092
sI1090
Vrelated
p1093
sI1091
Vcowards
p1094
sI1092
Vchanging
p1095
sI1093
Vgreat
p1096
sI1094
Vexperienced
p1097
sI1095
Vnorth
p1098
sI1096
Vsouth
p1099
sI1097
Vhandling
p1100
sI1098
Vjournalists
p1101
sI1099
Vdressed
p1102
sI1100
Vkillers
p1103
sI1101
Vschedule
p1104
sI1102
Vbeer
p1105
sI1103
Vmilk
p1106
sI1104
Vwine
p1107
sI1105
Vpulling
p1108
sI1106
Vproblem
p1109
sI1107
Vactresses
p1110
sI1108
Vhilarious
p1111
sI1109
Vprisoner
p1112
sI1110
Varticulate
p1113
sI1111
Vagain
p1114
sI1112
Vcourageous
p1115
sI1113
Vdiplomatic
p1116
sI1114
Vdisgusting
p1117
sI1115
Vhurting
p1118
sI1116
Vincredible
p1119
sI1117
Vproductive
p1120
sI1118
Vremarkable
p1121
sI1119
Vscaring
p1122
sI1120
Vtelling
p1123
sI1121
Vleader
p1124
sI1122
Vmaster
p1125
sI1123
Vpolite
p1126
sI1124
Vdriver
p1127
sI1125
Vdaydreamer
p1128
sI1126
Vfishmonger
p1129
sI1127
Vloser
p1130
sI1128
Vsimple
p1131
sI1129
Vslim
p1132
sI1130
Vbut
p1133
sI1131
Vdrinking
p1134
sI1132
Vclassmate
p1135
sI1133
Vcolleague
p1136
sI1134
Vradio
p1137
sI1135
Vplaying
p1138
sI1136
Vgolf
p1139
sI1137
Vwitted
p1140
sI1138
Vheartless
p1141
sI1139
Vthick
p1142
sI1140
Vheaded
p1143
sI1141
Vlearned
p1144
sI1142
Vcreationist
p1145
sI1143
Vwalker
p1146
sI1144
Vfilthy
p1147
sI1145
Vfood
p1148
sI1146
Vcritic
p1149
sI1147
Vghostwriter
p1150
sI1148
Vgoal
p1151
sI1149
Vkeeper
p1152
sI1150
Vmeth
p1153
sI1151
Vstrange
p1154
sI1152
Venglishman
p1155
sI1153
Varistocrat
p1156
sI1154
Vcloser
p1157
sI1155
Vearth
p1158
sI1156
Vcards
p1159
sI1157
Vshower
p1160
sI1158
Voverconfident
p1161
sI1159
Vpushing
p1162
sI1160
Vfifty
p1163
sI1161
Vself
p1164
sI1162
Vemployed
p1165
sI1163
Vscapegoat
p1166
sI1164
Vflexible
p1167
sI1165
Vfond
p1168
sI1166
Vmusic
p1169
sI1167
Vportugal
p1170
sI1168
Vshizuoka
p1171
sI1169
Vgrilling
p1172
sI1170
Vnobody
p1173
sI1171
Vimpartial
p1174
sI1172
Vconfirm
p1175
sI1173
Vnext
p1176
sI1174
Vweek
p1177
sI1175
Vnothing
p1178
sI1176
Vride
p1179
sI1177
Vhorse
p1180
sI1178
Vexclude
p1181
sI1179
Vexcuse
p1182
sI1180
Vfollow
p1183
sI1181
Vforget
p1184
sI1182
Vimagine
p1185
sI1183
Vlive
p1186
sI1184
Vdad
p1187
sI1185
Vkids
p1188
sI1186
Vstudy
p1189
sI1187
Vknit
p1190
sI1188
Vparty
p1191
sI1189
Vdisqualified
p1192
sI1190
Vexpecting
p1193
sI1191
Vforced
p1194
sI1192
Vonce
p1195
sI1193
Vphone
p1196
sI1194
Vparaphrasing
p1197
sI1195
Vraised
p1198
sI1196
Vstiff
p1199
sI1197
Vyounger
p1200
sI1198
Vconsulted
p1201
sI1199
Vhad
p1202
sI1200
Vwere
p1203
sI1201
Vd
p1204
sI1202
Vmet
p1205
sI1203
Vlearner
p1206
sI1204
Vrusty
p1207
sI1205
Vphotographer
p1208
sI1206
Vbats
p1209
sI1207
Vdogs
p1210
sI1208
Vharassed
p1211
sI1209
Vpromoted
p1212
sI1210
Vpunished
p1213
sI1211
Vsensible
p1214
sI1212
Vbadly
p1215
sI1213
Vdeath
p1216
sI1214
Vpuppy
p1217
sI1215
Vclaustrophobic
p1218
sI1216
Vjuly
p1219
sI1217
Vsunday
p1220
sI1218
Vsingapore
p1221
sI1219
Vgaining
p1222
sI1220
Vdowntown
p1223
sI1221
Vfight
p1224
sI1222
Vrelax
p1225
sI1223
Vskiing
p1226
sI1224
Vlisten
p1227
sI1225
V?
p1228
sI1226
Vhealth
p1229
sI1227
Vbathtub
p1230
sI1228
Vbeginning
p1231
sI1229
Vlaying
p1232
sI1230
Vlearning
p1233
sI1231
Vczech
p1234
sI1232
Vletting
p1235
sI1233
Vcriminal
p1236
sI1234
Vmagician
p1237
sI1235
Vdelusional
p1238
sI1236
Vdenying
p1239
sI1237
Vinvincible
p1240
sI1238
Voverweight
p1241
sI1239
Vslave
p1242
sI1240
Vstart
p1243
sI1241
Vseeing
p1244
sI1242
Vsomeone
p1245
sI1243
Vsomewhat
p1246
sI1244
Vshock
p1247
sI1245
Vsuddenly
p1248
sI1246
Vsupporting
p1249
sI1247
Vterribly
p1250
sI1248
Vtwice
p1251
sI1249
Vunenthusiastic
p1252
sI1250
Vusing
p1253
sI1251
Vcup
p1254
sI1252
Vwriting
p1255
sI1253
Vbook
p1256
sI1254
Vkissing
p1257
sI1255
Vpigeon
p1258
sI1256
Vtoed
p1259
sI1257
Vsat
p1260
sI1258
Vfriendly
p1261
sI1259
Vshook
p1262
sI1260
Vhead
p1263
sI1261
Vhappily
p1264
sI1262
Vchinese
p1265
sI1263
Vstarted
p1266
sI1264
Vteaser
p1267
sI1265
Vsupermodel
p1268
sI1266
Valcoholic
p1269
sI1267
Vfruit
p1270
sI1268
Vchristians
p1271
sI1269
Vcarnations
p1272
sI1270
Vdisposable
p1273
sI1271
Vhandcuffed
p1274
sI1272
Vwords
p1275
sI1273
Vpart
p1276
sI1274
Vaustralians
p1277
sI1275
Vpeople
p1278
sI1276
Vinfected
p1279
sI1277
Vwriters
p1280
sI1278
Vconservative
p1281
sI1279
Vcontributing
p1282
sI1280
Vhalfway
p1283
sI1281
Vhoneymooning
p1284
sI1282
Vlibrary
p1285
sI1283
Vnearly
p1286
sI1284
Vsoldiers
p1287
sI1285
Vmoney
p1288
sI1286
Vstock
p1289
sI1287
Vtight
p1290
sI1288
Vsaving
p1291
sI1289
Vlives
p1292
sI1290
Vslowing
p1293
sI1291
Vturning
p1294
sI1292
Vunder
p1295
sI1293
Vattack
p1296
sI1294
Vunprejudiced
p1297
sI1295
Vimpossible
p1298
sI1296
Vsofty
p1299
sI1297
Vgal
p1300
sI1298
Vwoman
p1301
sI1299
Vracists
p1302
sI1300
Vavoiding
p1303
sI1301
Vconsiderate
p1304
sI1302
Vextroverted
p1305
sI1303
Vfascinating
p1306
sI1304
Vprincess
p1307
sI1305
Vbruised
p1308
sI1306
Vlist
p1309
sI1307
Vgreen
p1310
sI1308
Vtouching
p1311
sI1309
Vred
p1312
sI1310
Vastute
p1313
sI1311
Vdirect
p1314
sI1312
Vworker
p1315
sI1313
Vfellow
p1316
sI1314
Vsize
p1317
sI1315
Vapt
p1318
sI1316
Voffice
p1319
sI1317
Vindeed
p1320
sI1318
Vfar
p1321
sI1319
Vrugby
p1322
sI1320
Vreligious
p1323
sI1321
Vkilos
p1324
sI1322
Vprobably
p1325
sI1323
Vlean
p1326
sI1324
Vlie
p1327
sI1325
Vsociable
p1328
sI1326
Vwashing
p1329
sI1327
Vwearing
p1330
sI1328
Vhat
p1331
sI1329
Vcardiologist
p1332
sI1330
Vchain
p1333
sI1331
Vsmoker
p1334
sI1332
Vkisser
p1335
sI1333
Vbloomer
p1336
sI1334
Vloose
p1337
sI1335
Vcannon
p1338
sI1336
Vscriptwriter
p1339
sI1337
Vopera
p1340
sI1338
Vbehaving
p1341
sI1339
Voddly
p1342
sI1340
Vbefore
p1343
sI1341
Vheadache
p1344
sI1342
Vfifties
p1345
sI1343
Vkitchen
p1346
sI1344
Vknown
p1347
sI1345
Vlikely
p1348
sI1346
Vsentry
p1349
sI1347
Vthan
p1350
sI1348
Vswimmer
p1351
sI1349
Velectrician
p1352
sI1350
Vnoodles
p1353
sI1351
Vcare
p1354
sI1352
Vmother
p1355
sI1353
Volder
p1356
sI1354
Vpeeling
p1357
sI1355
Vapples
p1358
sI1356
Vchosen
p1359
sI1357
Vbarely
p1360
sI1358
Vthree
p1361
sI1359
Vtomorrow
p1362
sI1360
Vwind
p1363
sI1361
Vsecret
p1364
sI1362
Vpeel
p1365
sI1363
Vapple
p1366
sI1364
Vlight
p1367
sI1365
Vsmell
p1368
sI1366
Vcookies
p1369
sI1367
Vaccept
p1370
sI1368
Vanswer
p1371
sI1369
Vbelieve
p1372
sI1370
Vchange
p1373
sI1371
Vany
p1374
sI1372
Vmore
p1375
sI1373
Vanything
p1376
sI1374
Vdraw
p1377
sI1375
Vbird
p1378
sI1376
Vbus
p1379
sI1377
Vfall
p1380
sI1378
Vbag
p1381
sI1379
Vkey
p1382
sI1380
Vforgive
p1383
sI1381
Vword
p1384
sI1382
Vanyone
p1385
sI1383
Videntify
p1386
sI1384
Vignore
p1387
sI1385
Vthing
p1388
sI1386
Vtalk
p1389
sI1387
Vwounded
p1390
sI1388
Vosaka
p1391
sI1389
Vgiven
p1392
sI1390
Vmedal
p1393
sI1391
Vschooled
p1394
sI1392
Vyesterday
p1395
sI1393
Vusual
p1396
sI1394
Vbreath
p1397
sI1395
Vshirt
p1398
sI1396
Vsleeper
p1399
sI1397
Vperfectionist
p1400
sI1398
Vsocial
p1401
sI1399
Vstranger
p1402
sI1400
Vabsolutely
p1403
sI1401
Vservice
p1404
sI1402
Vhunger
p1405
sI1403
Vthirst
p1406
sI1404
Vfed
p1407
sI1405
Vthank
p1408
sI1406
Vsaw
p1409
sI1407
Vcalled
p1410
sI1408
Vtrip
p1411
sI1409
Vscience
p1412
sI1410
Vapartment
p1413
sI1411
Vunderwear
p1414
sI1412
Vincredibly
p1415
sI1413
Vindebted
p1416
sI1414
Vloner
p1417
sI1415
Vbasque
p1418
sI1416
Vtonight
p1419
sI1417
Vliving
p1420
sI1418
Vdream
p1421
sI1419
Vprogress
p1422
sI1420
Vlonger
p1423
sI1421
Vapologizing
p1424
sI1422
Vblaming
p1425
sI1423
Veither
p1426
sI1424
Vcomplaining
p1427
sI1425
Vdisagreeing
p1428
sI1426
Vmood
p1429
sI1427
Vintimidated
p1430
sI1428
Vpresentable
p1431
sI1429
Vmanager
p1432
sI1430
Vcustomer
p1433
sI1431
Vpractice
p1434
sI1432
Vperfectly
p1435
sI1433
Vpractising
p1436
sI1434
Vjudo
p1437
sI1435
Vwithout
p1438
sI1436
Vslightly
p1439
sI1437
Vforgot
p1440
sI1438
Vundecided
p1441
sI1439
Vjob
p1442
sI1440
Vtraveling
p1443
sI1441
Vturn
p1444
sI1442
Vnovel
p1445
sI1443
Vchatterbox
p1446
sI1444
Vmannered
p1447
sI1445
Vdark
p1448
sI1446
Vskinned
p1449
sI1447
Vcake
p1450
sI1448
Vnatured
p1451
sI1449
Vshaved
p1452
sI1450
Vmuch
p1453
sI1451
Vbuys
p1454
sI1452
Vloved
p1455
sI1453
Vloves
p1456
sI1454
Vstopped
p1457
sI1455
Vblonde
p1458
sI1456
Vgossip
p1459
sI1457
Vtrue
p1460
sI1458
Vbeen
p1461
sI1459
Vpoisoned
p1462
sI1460
Vpenniless
p1463
sI1461
Vminor
p1464
sI1462
Vwilled
p1465
sI1463
Vsisters
p1466
sI1464
Vguests
p1467
sI1465
Vthieves
p1468
sI1466
Vignoring
p1469
sI1467
Vwitnesses
p1470
sI1468
Vamong
p1471
sI1469
Vtogether
p1472
sI1470
Vclosing
p1473
sI1471
Vconscientious
p1474
sI1472
Vfinally
p1475
sI1473
Vhunting
p1476
sI1474
Vdinner
p1477
sI1475
Vstarting
p1478
sI1476
Vdate
p1479
sI1477
Vstrangers
p1480
sI1478
Vcoffee
p1481
sI1479
Vtempting
p1482
sI1480
Vfate
p1483
sI1481
Vve
p1484
sI1482
Vcantankerous
p1485
sI1483
Vincorrigible
p1486
sI1484
Virresistible
p1487
sI1485
Vhook
p1488
sI1486
Vbooze
p1489
sI1487
Vorder
p1490
sI1488
Vsugar
p1491
sI1489
Vpoisoning
p1492
sI1490
Vflirt
p1493
sI1491
Vgreatest
p1494
sI1492
Vsweetest
p1495
sI1493
Vforward
p1496
sI1494
Vhelpful
p1497
sI1495
Vstylish
p1498
sI1496
Vwasting
p1499
sI1497
Vspeaker
p1500
sI1498
Vhandsome
p1501
sI1499
Vharsh
p1502
sI1500
Vfaith
p1503
sI1501
Vcookie
p1504
sI1502
Vunsung
p1505
sI1503
Vbreathing
p1506
sI1504
Vsixty
p1507
sI1505
Vfive
p1508
sI1506
Venergy
p1509
sI1507
Vsoccer
p1510
sI1508
Vplease
p1511
sI1509
Vprecious
p1512
sI1510
Vsavage
p1513
sI1511
Vsadly
p1514
sI1512
Vgloves
p1515
sI1513
Vwilling
p1516
sI1514
Vinfluence
p1517
sI1515
Vcomputer
p1518
sI1516
Vfreak
p1519
sI1517
Vcase
p1520
sI1518
Vsmooth
p1521
sI1519
Vtalker
p1522
sI1520
Vplayer
p1523
sI1521
Vlung
p1524
sI1522
Vcancer
p1525
sI1523
Vgrave
p1526
sI1524
Veveryone
p1527
sI1525
Vmissed
p1528
sI1526
Vboat
p1529
sI1527
Voffered
p1530
sI1528
Vposition
p1531
sI1529
Vsmarter
p1532
sI1530
Vclown
p1533
sI1531
Vchair
p1534
sI1532
Vprotective
p1535
sI1533
Vbears
p1536
sI1534
Vdrawing
p1537
sI1535
Vstory
p1538
sI1536
Vweighing
p1539
sI1537
Vsomething
p1540
sI1538
Vhappen
p1541
sI1539
Vpiano
p1542
sI1540
Vbicycle
p1543
sI1541
Vsqueeze
p1544
sI1542
Vtake
p1545
sI1543
Vmessage
p1546
sI1544
Vcarry
p1547
sI1545
Vtune
p1548
sI1546
Vcount
p1549
sI1547
Vsir
p1550
sI1548
Vanymore
p1551
sI1549
Vkiss
p1552
sI1550
Vlegs
p1553
sI1551
Vgerman
p1554
sI1552
Vchances
p1555
sI1553
Vtell
p1556
sI1554
Vforever
p1557
sI1555
Vship
p1558
sI1556
Vplanning
p1559
sI1557
Vsomewhere
p1560
sI1558
Velse
p1561
sI1559
Vstung
p1562
sI1560
Vbee
p1563
sI1561
Vreluctant
p1564
sI1562
Vresponsible
p1565
sI1563
Vhappiness
p1566
sI1564
Vcitizen
p1567
sI1565
Vwindows
p1568
sI1566
Vcomplete
p1569
sI1567
Vnatural
p1570
sI1568
Vflying
p1571
sI1569
Vbill
p1572
sI1570
Vallergic
p1573
sI1571
Vcats
p1574
sI1572
Vcorn
p1575
sI1573
Vdisposal
p1576
sI1574
Vattracted
p1577
sI1575
Vsecurity
p1578
sI1576
Vchecking
p1579
sI1577
Voptions
p1580
sI1578
Vdoor
p1581
sI1579
Vdepending
p1582
sI1580
Vdishes
p1583
sI1581
Vcall
p1584
sI1582
Vstressed
p1585
sI1583
Vmeet
p1586
sI1584
Vever
p1587
sI1585
Vevery
p1588
sI1586
Vsave
p1589
sI1587
Vhighly
p1590
sI1588
Vhitting
p1591
sI1589
Vroad
p1592
sI1590
Vanother
p1593
sI1591
Vsnowman
p1594
sI1592
Vmarrying
p1595
sI1593
Vsitting
p1596
sI1594
Vstopping
p1597
sI1595
Vsides
p1598
sI1596
Vservant
p1599
sI1597
Voften
p1600
sI1598
Vpressing
p1601
sI1599
Vcharges
p1602
sI1600
Vif
p1603
sI1601
Vbeside
p1604
sI1602
Vshorter
p1605
sI1603
Vmeetings
p1606
sI1604
Vll
p1607
sI1605
Vterrible
p1608
sI1606
Vunnecessary
p1609
sI1607
Vletter
p1610
sI1608
Vbiggest
p1611
sI1609
Vdancer
p1612
sI1610
Vskate
p1613
sI1611
Vsports
p1614
sI1612
Vline
p1615
sI1613
Vhostile
p1616
sI1614
Vabroad
p1617
sI1615
Vgirlfriend
p1618
sI1616
Vskipping
p1619
sI1617
Vrope
p1620
sI1618
Vsang
p1621
sI1619
Vvegetables
p1622
sI1620
Vsent
p1623
sI1621
Vserved
p1624
sI1622
Vface
p1625
sI1623
Vimpolitely
p1626
sI1624
Vstole
p1627
sI1625
Vclothes
p1628
sI1626
Vbelly
p1629
sI1627
Vtwo
p1630
sI1628
Vbooks
p1631
sI1629
Vemotional
p1632
sI1630
Vapproaching
p1633
sI1631
Vtourists
p1634
sI1632
Vthreat
p1635
sI1633
Vrules
p1636
sI1634
Vsending
p1637
sI1635
Veleven
p1638
sI1636
Vsix
p1639
sI1637
Vvulnerable
p1640
sI1638
Vblood
p1641
sI1639
Vwarmer
p1642
sI1640
Vshopping
p1643
sI1641
Vbegin
p1644
sI1642
Vblast
p1645
sI1643
Vcompany
p1646
sI1644
Vrecession
p1647
sI1645
Vbarbarians
p1648
sI1646
Vevacuating
p1649
sI1647
Vterrorists
p1650
sI1648
Vbullets
p1651
sI1649
Vprotecting
p1652
sI1650
Vunderage
p1653
sI1651
Vworkaholic
p1654
sI1652
Varrest
p1655
sI1653
Vwhat
p1656
sI1654
Vdouble
p1657
sI1655
Vparked
p1658
sI1656
Vlose
p1659
sI1657
Vsuspect
p1660
sI1658
Vopportunistic
p1661
sI1659
Voveremotional
p1662
sI1660
Vputting
p1663
sI1661
Vgrowing
p1664
sI1662
Vtemperamental
p1665
sI1663
Vunforgettable
p1666
sI1664
Vgenerous
p1667
sI1665
Vprankster
p1668
sI1666
Vheroin
p1669
sI1667
Vfossil
p1670
sI1668
Vreason
p1671
sI1669
Vvision
p1672
sI1670
Vwealth
p1673
sI1671
Vwisdom
p1674
sI1672
Vshooter
p1675
sI1673
Vspoiled
p1676
sI1674
Vabove
p1677
sI1675
Vsuspicion
p1678
sI1676
Vlaughing
p1679
sI1677
Varmy
p1680
sI1678
Vofficer
p1681
sI1679
Vblinded
p1682
sI1680
Veager
p1683
sI1681
Vbathroom
p1684
sI1682
Vamateur
p1685
sI1683
Vthought
p1686
sI1684
Vordinary
p1687
sI1685
Vsuccess
p1688
sI1686
Vsucceed
p1689
sI1687
Vunable
p1690
sI1688
Vglasses
p1691
sI1689
Vlad
p1692
sI1690
Vnotorious
p1693
sI1691
Vsnakes
p1694
sI1692
Vabsolute
p1695
sI1693
Voceanographer
p1696
sI1694
Venjoying
p1697
sI1695
Vhimself
p1698
sI1696
Vinto
p1699
sI1697
Vpower
p1700
sI1698
Vtheir
p1701
sI1699
Vparents
p1702
sI1700
Vfolding
p1703
sI1701
Vdress
p1704
sI1702
Vharvesting
p1705
sI1703
Vwheat
p1706
sI1704
Vclassroom
p1707
sI1705
Vnear
p1708
sI1706
Vstation
p1709
sI1707
Vmatch
p1710
sI1708
Vask
p1711
sI1709
Veverything
p1712
sI1710
Vwindow
p1713
sI1711
Vguitar
p1714
sI1712
Vocean
p1715
sI1713
Vfarther
p1716
sI1714
Vwrite
p1717
sI1715
Vdrink
p1718
sI1716
Valcohol
p1719
sI1717
Vpromises
p1720
sI1718
Vjar
p1721
sI1719
Vfishing
p1722
sI1720
Vlong
p1723
sI1721
Vcoughing
p1724
sI1722
Vgirls
p1725
sI1723
Vtrust
p1726
sI1724
Vanybody
p1727
sI1725
Vunderstand
p1728
sI1726
Voctober
p1729
sI1727
Vchoked
p1730
sI1728
Vdeceived
p1731
sI1729
Vfalsely
p1732
sI1730
Vaccused
p1733
sI1731
Vspirits
p1734
sI1732
Vtold
p1735
sI1733
Valong
p1736
sI1734
Vcamera
p1737
sI1735
Vseen
p1738
sI1736
Vstone
p1739
sI1737
Vfootball
p1740
sI1738
Vheights
p1741
sI1739
Vspiders
p1742
sI1740
Vtricks
p1743
sI1741
Vrestaurant
p1744
sI1742
Vblackmailed
p1745
sI1743
Vhomework
p1746
sI1744
Vdreading
p1747
sI1745
Vexam
p1748
sI1746
Vsandwich
p1749
sI1747
Vfailing
p1750
sI1748
Vjapan
p1751
sI1749
Vundressed
p1752
sI1750
Vmiss
p1753
sI1751
Vneed
p1754
sI1752
Vwatch
p1755
sI1753
Vapologize
p1756
sI1754
Vcourse
p1757
sI1755
Vdisbeliever
p1758
sI1756
Vdrug
p1759
sI1757
Vmillionaire
p1760
sI1758
Ventirely
p1761
sI1759
Vfollowing
p1762
sI1760
Vlook
p1763
sI1761
Vanyway
p1764
sI1762
Vnarrow
p1765
sI1763
Vunsympathetic
p1766
sI1764
Vathletic
p1767
sI1765
Vsocks
p1768
sI1766
Vbreak
p1769
sI1767
Vgame
p1770
sI1768
Vrarely
p1771
sI1769
Vswamped
p1772
sI1770
Vchess
p1773
sI1771
Vcry
p1774
sI1772
Vnoise
p1775
sI1773
Vdrawn
p1776
sI1774
Vsmoking
p1777
sI1775
Vsewing
p1778
sI1776
Vnature
p1779
sI1777
Vsmile
p1780
sI1778
Vscreamed
p1781
sI1779
Vstayed
p1782
sI1780
Vhotel
p1783
sI1781
Vlife
p1784
sI1782
Vclueless
p1785
sI1783
Vsmartly
p1786
sI1784
Vcriminals
p1787
sI1785
Vcompletely
p1788
sI1786
Vdealing
p1789
sI1787
Vnowhere
p1790
sI1788
Vpracticing
p1791
sI1789
Vdaughters
p1792
sI1790
Vseriously
p1793
sI1791
Vlaugh
p1794
sI1792
Vexcuses
p1795
sI1793
Vanalyzing
p1796
sI1794
Vleg
p1797
sI1795
Vthink
p1798
sI1796
Vpredictable
p1799
sI1797
Vefficient
p1800
sI1798
Vworse
p1801
sI1799
Vbirth
p1802
sI1800
Vcapable
p1803
sI1801
Vcarpenter
p1804
sI1802
Vlovable
p1805
sI1803
Vability
p1806
sI1804
Veye
p1807
sI1805
Vjazz
p1808
sI1806
Vequal
p1809
sI1807
Vfluent
p1810
sI1808
Vpainting
p1811
sI1809
Vambition
p1812
sI1810
Vmurder
p1813
sI1811
Vodd
p1814
sI1812
Vriding
p1815
sI1813
Vbrick
p1816
sI1814
Vjunior
p1817
sI1815
Vemployee
p1818
sI1816
Vacting
p1819
sI1817
Vdrugs
p1820
sI1818
Vsea
p1821
sI1819
Vahead
p1822
sI1820
Vrace
p1823
sI1821
Vbat
p1824
sI1822
Vsit
p1825
sI1823
Vspy
p1826
sI1824
Vleaning
p1827
sI1825
Vcane
p1828
sI1826
Vworthy
p1829
sI1827
Vsweetheart
p1830
sI1828
Vdiary
p1831
sI1829
Vbrushing
p1832
sI1830
Vteeth
p1833
sI1831
Vmonth
p1834
sI1832
Vsixteen
p1835
sI1833
Vwant
p1836
sI1834
Vteach
p1837
sI1835
Vagree
p1838
sI1836
Vdeal
p1839
sI1837
Vwallet
p1840
sI1838
Vfurther
p1841
sI1839
Vjudge
p1842
sI1840
Vdistance
p1843
sI1841
Vpick
p1844
sI1842
Vlock
p1845
sI1843
Vput
p1846
sI1844
Vreptiles
p1847
sI1845
Vviolence
p1848
sI1846
Vstraight
p1849
sI1847
Vorders
p1850
sI1848
Vknow
p1851
sI1849
Vyear
p1852
sI1850
Vago
p1853
sI1851
Vthrown
p1854
sI1852
Vguard
p1855
sI1853
Vwould
p1856
sI1854
Vfew
p1857
sI1855
Vminutes
p1858
sI1856
Vtaxi
p1859
sI1857
Vaccustomed
p1860
sI1858
Vgluten
p1861
sI1859
Vallowing
p1862
sI1860
Vworld
p1863
sI1861
Vbody
p1864
sI1862
Vairport
p1865
sI1863
Vfacts
p1866
sI1864
Vrisks
p1867
sI1865
Vheld
p1868
sI1866
Vhostage
p1869
sI1867
Vmoment
p1870
sI1868
Vwrecked
p1871
sI1869
Vcame
p1872
sI1870
Vaustralia
p1873
sI1871
Vhonored
p1874
sI1872
Vclub
p1875
sI1873
Vlonging
p1876
sI1874
Vgrass
p1877
sI1875
Vprofessional
p1878
sI1876
Vriser
p1879
sI1877
Vanswering
p1880
sI1878
Vdisputing
p1881
sI1879
Vanywhere
p1882
sI1880
Vorganized
p1883
sI1881
Vboyfriend
p1884
sI1882
Voffering
p1885
sI1883
Vwhen
p1886
sI1884
Vreporting
p1887
sI1885
Vhearing
p1888
sI1886
Vyoungest
p1889
sI1887
Vargue
p1890
sI1888
Vsunglasses
p1891
sI1889
Vgifted
p1892
sI1890
Vfraud
p1893
sI1891
Vtheft
p1894
sI1892
Vhabitually
p1895
sI1893
Vwalked
p1896
sI1894
Vsays
p1897
sI1895
Vwill
p1898
sI1896
Vshowed
p1899
sI1897
Vtop
p1900
sI1898
Vbolt
p1901
sI1899
Vupright
p1902
sI1900
Vkissed
p1903
sI1901
Vglamorous
p1904
sI1902
Vwitch
p1905
sI1903
Vgrumbling
p1906
sI1904
Vmonopoly
p1907
sI1905
Vrolling
p1908
sI1906
Vcheerful
p1909
sI1907
Vtub
p1910
sI1908
Vnoon
p1911
sI1909
Vagreement
p1912
sI1910
Valso
p1913
sI1911
Veggs
p1914
sI1912
Vimagining
p1915
sI1913
Vthings
p1916
sI1914
Vinvestigating
p1917
sI1915
Vhanging
p1918
sI1916
Vashore
p1919
sI1917
Vtroublemaker
p1920
sI1918
Vconsistent
p1921
sI1919
Vmalicious
p1922
sI1920
Vcuter
p1923
sI1921
Vmary
p1924
sI1922
Vembarrassing
p1925
sI1923
Vblush
p1926
sI1924
Vwanted
p1927
sI1925
Vpack
p1928
sI1926
Vrat
p1929
sI1927
Vperceptive
p1930
sI1928
Vcomposer
p1931
sI1929
Vmedical
p1932
sI1930
Vchampion
p1933
sI1931
Vboiling
p1934
sI1932
Vrage
p1935
sI1933
Vpicture
p1936
sI1934
Vtask
p1937
sI1935
Vadventure
p1938
sI1936
Vsofa
p1939
sI1937
Vboard
p1940
sI1938
Vchemistry
p1941
sI1939
Vrespected
p1942
sI1940
Vhave
p1943
sI1941
Vdied
p1944
sI1942
Vsmelling
p1945
sI1943
Vsoup
p1946
sI1944
Vcheat
p1947
sI1945
Vlovely
p1948
sI1946
Vrifle
p1949
sI1947
Veverybody
p1950
sI1948
Varithmetic
p1951
sI1949
Vhopelessly
p1952
sI1950
Vmumbling
p1953
sI1951
Vfloor
p1954
sI1952
Vsketching
p1955
sI1953
Vunderstanding
p1956
sI1954
Vcoat
p1957
sI1955
Vmagazine
p1958
sI1956
Vfastest
p1959
sI1957
Vclimb
p1960
sI1958
Veyes
p1961
sI1959
Vcode
p1962
sI1960
Vcatch
p1963
sI1961
Vfigure
p1964
sI1962
Vluggage
p1965
sI1963
Vhow
p1966
sI1964
Vhospitals
p1967
sI1965
Vheat
p1968
sI1966
Vapart
p1969
sI1967
Vnostalgic
p1970
sI1968
Vhoping
p1971
sI1969
Vcrowd
p1972
sI1970
Vtaken
p1973
sI1971
Vsurprise
p1974
sI1972
Vescape
p1975
sI1973
Veaten
p1976
sI1974
Vacquainted
p1977
sI1975
Vrain
p1978
sI1976
Vseafood
p1979
sI1977
Vloss
p1980
sI1978
Vcharmed
p1981
sI1979
Vchores
p1982
sI1980
Vdripping
p1983
sI1981
Vsweat
p1984
sI1982
Vemotionally
p1985
sI1983
Vdrained
p1986
sI1984
Vwife
p1987
sI1985
Vcoast
p1988
sI1986
Vfully
p1989
sI1987
Venjoyed
p1990
sI1988
Vpolice
p1991
sI1989
Vaverage
p1992
sI1990
Varound
p1993
sI1991
Vadvocating
p1994
sI1992
Veasily
p1995
sI1993
Vnames
p1996
sI1994
Vwomen
p1997
sI1995
Vdisturbed
p1998
sI1996
Vsuggestions
p1999
sI1997
Vname
p2000
sI1998
Vwho
p2001
sI1999
Vpretending
p2002
sI2000
Vtrain
p2003
sI2001
Vgiver
p2004
sI2002
Vblackmailing
p2005
sI2003
Vwhite
p2006
sI2004
Vmost
p2007
sI2005
Vprettier
p2008
sI2006
Vpresent
p2009
sI2007
Vawful
p2010
sI2008
Vknitting
p2011
sI2009
Vscarf
p2012
sI2010
Vbrooch
p2013
sI2011
Vseemed
p2014
sI2012
Vuninterested
p2015
sI2013
Vpostcard
p2016
sI2014
Valbum
p2017
sI2015
Vshuddered
p2018
sI2016
Vspanish
p2019
sI2017
Vstruggled
p2020
sI2018
Vmathematics
p2021
sI2019
Vlady
p2022
sI2020
Vheating
p2023
sI2021
Vkeys
p2024
sI2022
Vpet
p2025
sI2023
Vunfit
p2026
sI2024
Vgathering
p2027
sI2025
Vsalad
p2028
sI2026
Vsufficient
p2029
sI2027
Vfour
p2030
sI2028
Vbreakfast
p2031
sI2029
Vmondays
p2032
sI2030
Vgonna
p2033
sI2031
Vterms
p2034
sI2032
Vammunition
p2035
sI2033
Vdear
p2036
sI2034
Vhypocritical
p2037
sI2035
Vblocking
p2038
sI2036
Vview
p2039
sI2037
Veasy
p2040
sI2038
Vmissing
p2041
sI2039
Vhours
p2042
sI2040
Vignorant
p2043
sI2041
Vcharacter
p2044
sI2042
Vtypical
p2045
sI2043
Vabsent
p2046
sI2044
Vmeans
p2047
sI2045
Vfresh
p2048
sI2046
Vgymnastics
p2049
sI2047
Vbeat
p2050
sI2048
Vopening
p2051
sI2049
Vseeking
p2052
sI2050
Vemployment
p2053
sI2051
Vdrunkard
p2054
sI2052
Vhearted
p2055
sI2053
Vsorcerer
p2056
sI2054
Vexcellent
p2057
sI2055
Vchurch
p2058
sI2056
Vten
p2059
sI2057
Vstate
p2060
sI2058
Vaboard
p2061
sI2059
Vwiser
p2062
sI2060
Vfail
p2063
sI2061
Vcontent
p2064
sI2062
Vafternoon
p2065
sI2063
Vwarming
p2066
sI2064
Vromantic
p2067
sI2065
Vvideo
p2068
sI2066
Vgames
p2069
sI2067
Vhonesty
p2070
sI2068
Vpay
p2071
sI2069
Vrent
p2072
sI2070
Vsolve
p2073
sI2071
Vgift
p2074
sI2072
Vstuff
p2075
sI2073
Vumbrella
p2076
sI2074
Vkeyhole
p2077
sI2075
Vhide
p2078
sI2076
Vpromise
p2079
sI2077
Vchance
p2080
sI2078
Vabducted
p2081
sI2079
Valiens
p2082
sI2080
Vasked
p2083
sI2081
Vtheater
p2084
sI2082
Vcaught
p2085
sI2083
Vfrozen
p2086
sI2084
Vbone
p2087
sI2085
Vtears
p2088
sI2086
Vtrack
p2089
sI2087
Vscratched
p2090
sI2088
Vsearching
p2091
sI2089
Vadvantage
p2092
sI2090
Vushered
p2093
sI2091
Vseat
p2094
sI2092
Vwash
p2095
sI2093
Vhair
p2096
sI2094
Vfriday
p2097
sI2095
Vmember
p2098
sI2096
Vuniversity
p2099
sI2097
Vdefinitely
p2100
sI2098
Vdelighted
p2101
sI2099
Vfeeding
p2102
sI2100
Vgoldfish
p2103
sI2101
Vpeach
p2104
sI2102
Vhang
p2105
sI2103
Vhay
p2106
sI2104
Vregret
p2107
sI2105
Vshut
p2108
sI2106
Vdocumentary
p2109
sI2107
Vmorning
p2110
sI2108
Vnative
p2111
sI2109
Vviolent
p2112
sI2110
Vghosts
p2113
sI2111
Vallowed
p2114
sI2112
Vasking
p2115
sI2113
Vbreaking
p2116
sI2114
Vlaw
p2117
sI2115
Vgambling
p2118
sI2116
Vsell
p2119
sI2117
Vinspired
p2120
sI2118
Vplans
p2121
sI2119
Voverly
p2122
sI2120
Vselling
p2123
sI2121
Vsigning
p2124
sI2122
Vclearly
p2125
sI2123
Vamends
p2126
sI2124
Vextrovert
p2127
sI2125
Vintrovert
p2128
sI2126
Vplan
p2129
sI2127
Vworth
p2130
sI2128
Vappalling
p2131
sI2129
Vadvice
p2132
sI2130
Vwallflower
p2133
sI2131
Vherself
p2134
sI2132
Vsilence
p2135
sI2133
Vterror
p2136
sI2134
Vhands
p2137
sI2135
Vphoto
p2138
sI2136
Vlanguages
p2139
sI2137
Vfell
p2140
sI2138
Vsilent
p2141
sI2139
Vdamages
p2142
sI2140
Vdetermined
p2143
sI2141
Vdrop
p2144
sI2142
Vmachine
p2145
sI2143
Vshadow
p2146
sI2144
Vhigh
p2147
sI2145
Vheels
p2148
sI2146
Vinvesting
p2149
sI2147
Vcompatible
p2150
sI2148
Vsong
p2151
sI2149
Vshop
p2152
sI2150
Vsold
p2153
sI2151
Vjeans
p2154
sI2152
Vcommand
p2155
sI2153
Vagreed
p2156
sI2154
Vdeluding
p2157
sI2155
Vourselves
p2158
sI2156
Vpride
p2159
sI2157
Vjoy
p2160
sI2158
Vinsensitive
p2161
sI2159
Vnagging
p2162
sI2160
Vdisobeying
p2163
sI2161
Vsurprises
p2164
sI2162
Vimpressing
p2165
sI2163
Vspoiling
p2166
sI2164
Vtattletale
p2167
sI2165
Vtwisting
p2168
sI2166
Vsociety
p2169
sI2167
Vnovelist
p2170
sI2168
Vcocaine
p2171
sI2169
Venvironmentalist
p2172
sI2170
Vor
p2173
sI2171
Vinclined
p2174
sI2172
Vneighbors
p2175
sI2173
Vsoon
p2176
sI2174
Vdoubts
p2177
sI2175
Voverwork
p2178
sI2176
Vslowly
p2179
sI2177
Vchasing
p2180
sI2178
Vdoes
p2181
sI2179
Vcloset
p2182
sI2180
Vcongress
p2183
sI2181
Vmind
p2184
sI2182
Vfourteen
p2185
sI2183
Vshirts
p2186
sI2184
Vhers
p2187
sI2185
Vcastle
p2188
sI2186
Vthese
p2189
sI2187
Vdays
p2190
sI2188
Vwatering
p2191
sI2189
Vhour
p2192
sI2190
Vdeliver
p2193
sI2191
Vbox
p2194
sI2192
Vkick
p2195
sI2193
Vpraise
p2196
sI2194
Vstep
p2197
sI2195
Vmight
p2198
sI2196
Vchilled
p2199
sI2197
Veventually
p2200
sI2198
Vreleased
p2201
sI2199
Vworst
p2202
sI2200
Vnap
p2203
sI2201
Vmany
p2204
sI2202
Vfooling
p2205
sI2203
Vmessing
p2206
sI2204
Vknocked
p2207
sI2205
Vmeaning
p2208
sI2206
Vmomentarily
p2209
sI2207
Vlightning
p2210
sI2208
Vother
p2211
sI2209
Vkill
p2212
sI2210
Vwrongfully
p2213
sI2211
Vattention
p2214
sI2212
Vwings
p2215
sI2213
Vfly
p2216
sI2214
Vknew
p2217
sI2215
Vgraduate
p2218
sI2216
Vharvard
p2219
sI2217
Vdon
p2220
sI2218
Vearthquakes
p2221
sI2219
Vshellfish
p2222
sI2220
Vpressure
p2223
sI2221
Vend
p2224
sI2222
Vattaching
p2225
sI2223
Vfiles
p2226
sI2224
Vhate
p2227
sI2225
Vbringing
p2228
sI2226
Vpizza
p2229
sI2227
Vconsidering
p2230
sI2228
Vcutting
p2231
sI2229
Vactually
p2232
sI2230
Vfinishing
p2233
sI2231
Vinformation
p2234
sI2232
Vrealize
p2235
sI2233
Vwhile
p2236
sI2234
Vbuild
p2237
sI2235
Vfire
p2238
sI2236
Vhospital
p2239
sI2237
Vbeard
p2240
sI2238
Vkeeping
p2241
sI2239
Vmouth
p2242
sI2240
Vsweater
p2243
sI2241
Vbatteries
p2244
sI2242
Vmajoring
p2245
sI2243
Vsociology
p2246
sI2244
Vexactly
p2247
sI2245
Vpass
p2248
sI2246
Vtouch
p2249
sI2247
Vpressed
p2250
sI2248
Vsupposed
p2251
sI2249
Vusually
p2252
sI2250
Vnewspaper
p2253
sI2251
Vrelieved
p2254
sI2252
Vrelieving
p2255
sI2253
Vyelled
p2256
sI2254
Vkabuki
p2257
sI2255
Vdrama
p2258
sI2256
Vsuffering
p2259
sI2257
Vapprove
p2260
sI2258
Vtruth
p2261
sI2259
Vmarry
p2262
sI2260
Vwebsite
p2263
sI2261
Vconfirmed
p2264
sI2262
Vstealing
p2265
sI2263
Vmeal
p2266
sI2264
Vshowers
p2267
sI2265
Vsleeps
p2268
sI2266
Vstomach
p2269
sI2267
Vslept
p2270
sI2268
Vquickly
p2271
sI2269
Vvoice
p2272
sI2270
Vpeace
p2273
sI2271
Vconsequence
p2274
sI2272
Vwolves
p2275
sI2273
Vsolution
p2276
sI2274
Vmovies
p2277
sI2275
Vsome
p2278
sI2276
Vbecause
p2279
sI2277
Vwall
p2280
sI2278
Vteenager
p2281
sI2279
Vyourself
p2282
sI2280
Vlies
p2283
sI2281
Vsophisticated
p2284
sI2282
Vcompulsive
p2285
sI2283
Vnoble
p2286
sI2284
Vabsorbed
p2287
sI2285
Vtreachery
p2288
sI2286
Vbaseball
p2289
sI2287
Vchina
p2290
sI2288
Vconcert
p2291
sI2289
Vhunted
p2292
sI2290
Vfront
p2293
sI2291
Vmentally
p2294
sI2292
Vhandicapped
p2295
sI2293
Valtogether
p2296
sI2294
Vneighbours
p2297
sI2295
Vcross
p2298
sI2296
Vlegged
p2299
sI2297
Vhill
p2300
sI2298
Vagriculture
p2301
sI2299
Vsuspected
p2302
sI2300
Vrobbery
p2303
sI2301
Vpool
p2304
sI2302
Vconstruction
p2305
sI2303
Vabiding
p2306
sI2304
Vtalents
p2307
sI2305
Vfeller
p2308
sI2306
Vjunk
p2309
sI2307
Vcomics
p2310
sI2308
Vdigging
p2311
sI2309
Vbuddy
p2312
sI2310
Vskilled
p2313
sI2311
Vvideogames
p2314
sI2312
Vpark
p2315
sI2313
Vhelped
p2316
sI2314
Voptimist
p2317
sI2315
Vevening
p2318
sI2316
Vnews
p2319
sI2317
Vstairs
p2320
sI2318
Vsundays
p2321
sI2319
Vdifficulties
p2322
sI2320
Vneck
p2323
sI2321
Vtoes
p2324
sI2322
Vfelt
p2325
sI2323
Vrecall
p2326
sI2324
Vhand
p2327
sI2325
Vtheory
p2328
sI2326
Vdecode
p2329
sI2327
Vlend
p2330
sI2328
Vpossibly
p2331
sI2329
Vpredict
p2332
sI2330
Vfuture
p2333
sI2331
Vletters
p2334
sI2332
Vdescribe
p2335
sI2333
Vjealousy
p2336
sI2334
Varrested
p2337
sI2335
Vjune
p2338
sI2336
Vblue
p2339
sI2337
Vpleasantly
p2340
sI2338
Vearned
p2341
sI2339
Vfilm
p2342
sI2340
Vwhere
p2343
sI2341
Vcomplaint
p2344
sI2342
Vwon
p2345
sI2343
Vblack
p2346
sI2344
Vbelt
p2347
sI2345
Vkarate
p2348
sI2346
Vbum
p2349
sI2347
Vwild
p2350
sI2348
Vbreast
p2351
sI2349
Vsalary
p2352
sI2350
Vdeclaring
p2353
sI2351
Vemergency
p2354
sI2352
Vdeparting
p2355
sI2353
Vreconsider
p2356
sI2354
Vimmediately
p2357
sI2355
Vstating
p2358
sI2356
Vmom
p2359
sI2357
Vunreasonable
p2360
sI2358
Vdisappear
p2361
sI2359
Vsign
p2362
sI2360
Vparties
p2363
sI2361
Veaster
p2364
sI2362
Vegg
p2365
sI2363
Vvisit
p2366
sI2364
Vtemper
p2367
sI2365
Vmistake
p2368
sI2366
Vinterrupt
p2369
sI2367
Vtraffic
p2370
sI2368
Vjam
p2371
sI2369
Vbuilt
p2372
sI2370
Vkilled
p2373
sI2371
Vmcdonald
p2374
sI2372
Vcurrently
p2375
sI2373
Vforbidden
p2376
sI2374
Veditor
p2377
sI2375
Vchief
p2378
sI2376
Venter
p2379
sI2377
Vstore
p2380
sI2378
Vrecord
p2381
sI2379
Vshould
p2382
sI2380
Vuneasily
p2383
sI2381
Varabic
p2384
sI2382
Vbecame
p2385
sI2383
Vfallen
p2386
sI2384
Vbench
p2387
sI2385
Vannoy
p2388
sI2386
Vlooked
p2389
sI2387
Vlab
p2390
sI2388
Vminds
p2391
sI2389
Vamericans
p2392
sI2390
Vmarket
p2393
sI2391
Vtickets
p2394
sI2392
Vheading
p2395
sI2393
Vdisaster
p2396
sI2394
Vmeant
p2397
sI2395
Veach
p2398
sI2396
Vthrowing
p2399
sI2397
Vpage
p2400
sI2398
Vpractically
p2401
sI2399
Vdeceiving
p2402
sI2400
Vplane
p2403
sI2401
Vunbelievably
p2404
sI2402
Vothers
p2405
sI2403
Vgermans
p2406
sI2404
Vjolly
p2407
sI2405
Vinteresting
p2408
sI2406
Vtesting
p2409
sI2407
Vpatience
p2410
sI2408
Vinvestigation
p2411
sI2409
Vformidable
p2412
sI2410
Vopponent
p2413
sI2411
Vmathematical
p2414
sI2412
Vpromising
p2415
sI2413
Vneatly
p2416
sI2414
Vauthority
p2417
sI2415
Vclumsy
p2418
sI2416
Vphotos
p2419
sI2417
Vthirties
p2420
sI2418
Vcrime
p2421
sI2419
Vproficient
p2422
sI2420
Vroasting
p2423
sI2421
Vbeans
p2424
sI2422
Vstage
p2425
sI2423
Vmarketing
p2426
sI2424
Vtremendously
p2427
sI2425
Vfreelance
p2428
sI2426
Vindependent
p2429
sI2427
Vthinker
p2430
sI2428
Vbrighter
p2431
sI2429
Vcellphone
p2432
sI2430
Vrough
p2433
sI2431
Vedges
p2434
sI2432
Vscreaming
p2435
sI2433
Vo
p2436
sI2434
Vclock
p2437
sI2435
Vimport
p2438
sI2436
Vgif
p2439
sI2437
Vpictures
p2440
sI2438
Vpray
p2441
sI2439
Vlanguage
p2442
sI2440
Vcollect
p2443
sI2441
Vthoughts
p2444
sI2442
Vcontinue
p2445
sI2443
Vomelet
p2446
sI2444
Vlaziness
p2447
sI2445
Vexpress
p2448
sI2446
Vfeelings
p2449
sI2447
Vfault
p2450
sI2448
Vkindness
p2451
sI2449
Vmatter
p2452
sI2450
Vclearer
p2453
sI2451
Vallow
p2454
sI2452
Vrepair
p2455
sI2453
Varrogance
p2456
sI2454
Vuntil
p2457
sI2455
Vamazed
p2458
sI2456
Vcourage
p2459
sI2457
Vbitterly
p2460
sI2458
Vspeech
p2461
sI2459
Vapril
p2462
sI2460
Vgrammar
p2463
sI2461
Vcompetitive
p2464
sI2462
Vmanagement
p2465
sI2463
Vconsultant
p2466
sI2464
Vsuggestion
p2467
sI2465
Vactress
p2468
sI2466
Vdeeply
p2469
sI2467
Vpropose
p2470
sI2468
Vshoot
p2471
sI2469
Vfocusing
p2472
sI2470
Vnegotiating
p2473
sI2471
Vsuggesting
p2474
sI2472
Vpresents
p2475
sI2473
Vcomplaints
p2476
sI2474
Vdislike
p2477
sI2475
Vpersuade
p2478
sI2476
Vsuspicious
p2479
sI2477
Vwondering
p2480
sI2478
Vneat
p2481
sI2479
Vcertainly
p2482
sI2480
Vcontemplating
p2483
sI2481
Vbride
p2484
sI2482
Vgracious
p2485
sI2483
Vmuttering
p2486
sI2484
Vpotatoes
p2487
sI2485
Vqualified
p2488
sI2486
Vexecutive
p2489
sI2487
Vannoyed
p2490
sI2488
Vshouldn
p2491
sI2489
Vsummit
p2492
sI2490
Vstays
p2493
sI2491
Vpicking
p2494
sI2492
Vdaisies
p2495
sI2493
Vinquisitive
p2496
sI2494
Vhappier
p2497
sI2495
Vheavier
p2498
sI2496
Vdreams
p2499
sI2497
Vthemselves
p2500
sI2498
Vemployees
p2501
sI2499
Vdollars
p2502
sI2500
Vmistakes
p2503
sI2501
Vmild
p2504
sI2502
Vwinter
p2505
sI2503
Vmanipulated
p2506
sI2504
Vplayers
p2507
sI2505
Vofficially
p2508
sI2506
Vsheet
p2509
sI2507
Vcleared
p2510
sI2508
Vtakeoff
p2511
sI2509
Vliable
p2512
sI2510
Varrive
p2513
sI2511
Vmighty
p2514
sI2512
Vsavvy
p2515
sI2513
Vnegotiator
p2516
sI2514
Vgang
p2517
sI2515
Vscare
p2518
sI2516
Vprofession
p2519
sI2517
Vfailure
p2520
sI2518
Vbound
p2521
sI2519
Vpresident
p2522
sI2520
Vconstantly
p2523
sI2521
Vattached
p2524
sI2522
Vbecome
p2525
sI2523
Vinch
p2526
sI2524
Vmayor
p2527
sI2525
Vvote
p2528
sI2526
Vpreparing
p2529
sI2527
Vtest
p2530
sI2528
Vmeeting
p2531
sI2529
Vfunds
p2532
sI2530
Vcriticism
p2533
sI2531
Vtrusted
p2534
sI2532
Vpioneer
p2535
sI2533
Vscholar
p2536
sI2534
Vfaults
p2537
sI2535
Vsocializing
p2538
sI2536
Vaudacity
p2539
sI2537
Vconduct
p2540
sI2538
Vdoubtful
p2541
sI2539
Vfamiliar
p2542
sI2540
Vlearn
p2543
sI2541
Vtruck
p2544
sI2542
Vrecommend
p2545
sI2543
Vminute
p2546
sI2544
Vquestion
p2547
sI2545
Vdecide
p2548
sI2546
Vsalt
p2549
sI2547
Vshaker
p2550
sI2548
Vfunction
p2551
sI2549
Vrid
p2552
sI2550
Vpinpoint
p2553
sI2551
Vaching
p2554
sI2552
Vinjury
p2555
sI2553
Vbehavior
p2556
sI2554
Vlaughed
p2557
sI2555
Vprayers
p2558
sI2556
Vwent
p2559
sI2557
Vdidn
p2560
sI2558
Vmemory
p2561
sI2559
Vraining
p2562
sI2560
Vreader
p2563
sI2561
Vrumor
p2564
sI2562
Vassuming
p2565
sI2563
Vauditioning
p2566
sI2564
Vpossibility
p2567
sI2565
Vshoes
p2568
sI2566
Vspite
p2569
sI2567
Vweather
p2570
sI2568
Vguidelines
p2571
sI2569
Vfact
p2572
sI2570
Vunderstands
p2573
sI2571
Vbrought
p2574
sI2572
Vmoon
p2575
sI2573
Vrespond
p2576
sI2574
Vproblems
p2577
sI2575
Vsituation
p2578
sI2576
Vparticularly
p2579
sI2577
Vsuitable
p2580
sI2578
Vcorner
p2581
sI2579
Vreasons
p2582
sI2580
Vheight
p2583
sI2581
Vsecrets
p2584
sI2582
Vgermany
p2585
sI2583
Vbowl
p2586
sI2584
Vspoon
p2587
sI2585
Vsecond
p2588
sI2586
Veducated
p2589
sI2587
Venvious
p2590
sI2588
Vthunder
p2591
sI2589
Vimitating
p2592
sI2590
Vstaff
p2593
sI2591
Vremarkably
p2594
sI2592
Vtoward
p2595
sI2593
Vslipped
p2596
sI2594
Varm
p2597
sI2595
Vsometimes
p2598
sI2596
Vgets
p2599
sI2597
Vsqueezed
p2600
sI2598
Vlemon
p2601
sI2599
Vsuggested
p2602
sI2600
Vsorority
p2603
sI2601
Vanimal
p2604
sI2602
Vabuse
p2605
sI2603
Vdragging
p2606
sI2604
Vtorture
p2607
sI2605
Vstorm
p2608
sI2606
Vfavor
p2609
sI2607
Vdamage
p2610
sI2608
Vcriticizing
p2611
sI2609
Vcarrying
p2612
sI2610
Vmaniac
p2613
sI2611
Vblameless
p2614
sI2612
Vpants
p2615
sI2613
Vrequired
p2616
sI2614
Vunusually
p2617
sI2615
Vdentist
p2618
sI2616
Vfield
p2619
sI2617
Vbecoming
p2620
sI2618
Videal
p2621
sI2619
Vutter
p2622
sI2620
Vdevoid
p2623
sI2621
Vearning
p2624
sI2622
Vcomputers
p2625
sI2623
Vcollection
p2626
sI2624
Vimage
p2627
sI2625
Vfear
p2628
sI2626
Vspeeches
p2629
sI2627
Vsituations
p2630
sI2628
Vrare
p2631
sI2629
Vindividual
p2632
sI2630
Vbusinessman
p2633
sI2631
Vcunning
p2634
sI2632
Vmanipulative
p2635
sI2633
Vriver
p2636
sI2634
Vtelephone
p2637
sI2635
Vsloppy
p2638
sI2636
Vresult
p2639
sI2637
Vsafety
p2640
sI2638
Vaids
p2641
sI2639
Vresearch
p2642
sI2640
Vsummer
p2643
sI2641
Vassistant
p2644
sI2642
Vseventeen
p2645
sI2643
Vonions
p2646
sI2644
Vclear
p2647
sI2645
Vremain
p2648
sI2646
Vscarcely
p2649
sI2647
Vdepend
p2650
sI2648
Vmedicine
p2651
sI2649
Vquarrel
p2652
sI2650
Vseized
p2653
sI2651
Vdespair
p2654
sI2652
Vlion
p2655
sI2653
Vsupportive
p2656
sI2654
Vvalentine
p2657
sI2655
Vrespectable
p2658
sI2656
Vpenalty
p2659
sI2657
Vsubject
p2660
sI2658
Vmonday
p2661
sI2659
Vopportunity
p2662
sI2660
Vmakes
p2663
sI2661
Vhanover
p2664
sI2662
Vgrandmother
p2665
sI2663
Vlately
p2666
sI2664
Vcomparing
p2667
sI2665
Vmisunderstood
p2668
sI2666
Vflight
p2669
sI2667
Vturned
p2670
sI2668
Vjanuary
p2671
sI2669
Vmiddle
p2672
sI2670
Vsurvived
p2673
sI2671
Vfussing
p2674
sI2672
Vbarking
p2675
sI2673
Vrose
p2676
sI2674
Vdevoted
p2677
sI2675
Vparalyzed
p2678
sI2676
Vprogressing
p2679
sI2677
Vmirror
p2680
sI2678
Vshouted
p2681
sI2679
Vhatred
p2682
sI2680
Vweekdays
p2683
sI2681
Vneither
p2684
sI2682
Vnor
p2685
sI2683
Vcream
p2686
sI2684
Vcrop
p2687
sI2685
Vtravel
p2688
sI2686
Vpaint
p2689
sI2687
Vbasketball
p2690
sI2688
Vbug
p2691
sI2689
Vbutterfly
p2692
sI2690
Vchildish
p2693
sI2691
Vcontradicting
p2694
sI2692
Vaiming
p2695
sI2693
Vpath
p2696
sI2694
Vpreaching
p2697
sI2695
Vchoir
p2698
sI2696
Vresting
p2699
sI2697
Vtrained
p2700
sI2698
Vthoughtful
p2701
sI2699
Vbehalf
p2702
sI2700
Vforgetting
p2703
sI2701
Vquestions
p2704
sI2702
Vfacing
p2705
sI2703
Vchicago
p2706
sI2704
Vless
p2707
sI2705
Vcelebrity
p2708
sI2706
Vfits
p2709
sI2707
Vanger
p2710
sI2708
Vtoothache
p2711
sI2709
Vdirector
p2712
sI2710
Vgrandfather
p2713
sI2711
Vmeticulous
p2714
sI2712
Vobsessed
p2715
sI2713
Vcleanliness
p2716
sI2714
Veurope
p2717
sI2715
Vproposal
p2718
sI2716
Vpositive
p2719
sI2717
Vseveral
p2720
sI2718
Vnose
p2721
sI2719
Vbaggage
p2722
sI2720
Vaccent
p2723
sI2721
Vvacations
p2724
sI2722
Vart
p2725
sI2723
Vumpire
p2726
sI2724
Vjokes
p2727
sI2725
Vdelayed
p2728
sI2726
Vchallenge
p2729
sI2727
Vtougher
p2730
sI2728
Vwedding
p2731
sI2729
Vappointment
p2732
sI2730
Vhappened
p2733
sI2731
Vmiracle
p2734
sI2732
Vmillion
p2735
sI2733
Vadamant
p2736
sI2734
Vpattern
p2737
sI2735
Vtreated
p2738
sI2736
Vchocolate
p2739
sI2737
Vcell
p2740
sI2738
Vwarm
p2741
sI2739
Ventitled
p2742
sI2740
Vopinion
p2743
sI2741
Vambulance
p2744
sI2742
Vplain
p2745
sI2743
Vbuck
p2746
sI2744
Vpolitics
p2747
sI2745
Vjacket
p2748
sI2746
Vyork
p2749
sI2747
Vtimes
p2750
sI2748
Vlinux
p2751
sI2749
Vlaptop
p2752
sI2750
Vsensing
p2753
sI2751
Vhostility
p2754
sI2752
Vbothering
p2755
sI2753
Vbothered
p2756
sI2754
Vskills
p2757
sI2755
Vtraining
p2758
sI2756
Vtriathlon
p2759
sI2757
Vvoted
p2760
sI2758
Vtrading
p2761
sI2759
Vfirm
p2762
sI2760
Vironing
p2763
sI2761
Vhandkerchiefs
p2764
sI2762
Vappearing
p2765
sI2763
Vappreciated
p2766
sI2764
Vlacking
p2767
sI2765
Vcommon
p2768
sI2766
Vsense
p2769
sI2767
Vcynical
p2770
sI2768
Vvaluable
p2771
sI2769
Vring
p2772
sI2770
Vadequate
p2773
sI2771
Vurgent
p2774
sI2772
Vtelegram
p2775
sI2773
Vdependent
p2776
sI2774
Vworrying
p2777
sI2775
Vexams
p2778
sI2776
Vloving
p2779
sI2777
Vhog
p2780
sI2778
Vwraps
p2781
sI2779
Vmalaria
p2782
sI2780
Vcrisis
p2783
sI2781
Vsquare
p2784
sI2782
Vfreeze
p2785
sI2783
Vthanksgiving
p2786
sI2784
Vabusing
p2787
sI2785
Vruin
p2788
sI2786
Vcommittee
p2789
sI2787
Vimaginative
p2790
sI2788
Villness
p2791
sI2789
Vmanners
p2792
sI2790
Vincluded
p2793
sI2791
Vdemands
p2794
sI2792
Vmarriage
p2795
sI2793
Vunpopular
p2796
sI2794
Vmountain
p2797
sI2795
Vslingshot
p2798
sI2796
Vevicted
p2799
sI2797
Vphysical
p2800
sI2798
Vcondition
p2801
sI2799
Vlived
p2802
sI2800
Ventire
p2803
sI2801
Vpublic
p2804
sI2802
Vcustom
p2805
sI2803
Vmust
p2806
sI2804
Vinnocence
p2807
sI2805
Vpicnic
p2808
sI2806
Vleast
p2809
sI2807
Vtroubled
p2810
sI2808
Vnecessary
p2811
sI2809
Vhorizon
p2812
sI2810
Vtolerate
p2813
sI2811
Vreservation
p2814
sI2812
Vdischarged
p2815
sI2813
Vnotice
p2816
sI2814
Vhomeless
p2817
sI2815
Vmonths
p2818
sI2816
Varrival
p2819
sI2817
Vkicked
p2820
sI2818
Vapathetic
p2821
sI2819
Vwrote
p2822
sI2820
Vspecific
p2823
sI2821
Vspoken
p2824
sI2822
Vexperience
p2825
sI2823
Vmay
p2826
sI2824
Vexperiencing
p2827
sI2825
Vheartburn
p2828
sI2826
Vthose
p2829
sI2827
Vlesson
p2830
sI2828
Vbasics
p2831
sI2829
Vcanada
p2832
sI2830
Vpenpal
p2833
sI2831
Vcriticized
p2834
sI2832
Vwaste
p2835
sI2833
Vobviously
p2836
sI2834
Vcompetent
p2837
sI2835
Vsleeves
p2838
sI2836
Vthrow
p2839
sI2837
Vtowel
p2840
sI2838
Vspace
p2841
sI2839
Vcash
p2842
sI2840
Vresponse
p2843
sI2841
Vbawling
p2844
sI2842
Vjogging
p2845
sI2843
Vpurchase
p2846
sI2844
Vassistance
p2847
sI2845
Vbroom
p2848
sI2846
Vstick
p2849
sI2847
Vdistantly
p2850
sI2848
Vlikes
p2851
sI2849
Vspent
p2852
sI2850
Vconsciousness
p2853
sI2851
Vmaterialistic
p2854
sI2852
Vshallow
p2855
sI2853
Vadmitting
p2856
sI2854
Vbroadway
p2857
sI2855
Vavenue
p2858
sI2856
Vdiscussing
p2859
sI2857
Vunited
p2860
sI2858
Vstates
p2861
sI2859
Vcompetitors
p2862
sI2860
Vdoubting
p2863
sI2861
Vceremonies
p2864
sI2862
Vpotential
p2865
sI2863
Vwolf
p2866
sI2864
Vsheep
p2867
sI2865
Vclothing
p2868
sI2866
Vrelatives
p2869
sI2867
Vdepartment
p2870
sI2868
Vstingy
p2871
sI2869
Vindia
p2872
sI2870
Vcarbon
p2873
sI2871
Vcopy
p2874
sI2872
Vcrybaby
p2875
sI2873
Vsoft
p2876
sI2874
Vgrand
p2877
sI2875
Vauto
p2878
sI2876
Vproposition
p2879
sI2877
Vjewelry
p2880
sI2878
Vmonotonous
p2881
sI2879
Vsaxophone
p2882
sI2880
Vtrees
p2883
sI2881
Vcombination
p2884
sI2882
Vsight
p2885
sI2883
Vunderstood
p2886
sI2884
Vappearance
p2887
sI2885
V.m
p2888
sI2886
Vinjured
p2889
sI2887
Vimpress
p2890
sI2888
Vmexican
p2891
sI2889
Vcleverness
p2892
sI2890
Vresponsibilities
p2893
sI2891
Vdownloading
p2894
sI2892
Vchop
p2895
sI2893
Vtree
p2896
sI2894
Vrewrite
p2897
sI2895
Vreport
p2898
sI2896
Vsend
p2899
sI2897
Vregular
p2900
sI2898
Vperformance
p2901
sI2899
Vhamburgers
p2902
sI2900
Vbirthday
p2903
sI2901
Vbother
p2904
sI2902
Vrecognize
p2905
sI2903
Vjet
p2906
sI2904
Vlag
p2907
sI2905
Vnumber
p2908
sI2906
Vtelevision
p2909
sI2907
Voffer
p2910
sI2908
Vsongs
p2911
sI2909
Vfeeds
p2912
sI2910
Vlater
p2913
sI2911
Vsolved
p2914
sI2912
Vease
p2915
sI2913
Vweekend
p2916
sI2914
Vdepends
p2917
sI2915
Vcigarette
p2918
sI2916
Vsucceeded
p2919
sI2917
Vsuffocated
p2920
sI2918
Vpillow
p2921
sI2919
Vbusinesswoman
p2922
sI2920
Vviolinist
p2923
sI2921
Vrenown
p2924
sI2922
Vpossible
p2925
sI2923
Vpromised
p2926
sI2924
Vcolleagues
p2927
sI2925
Vones
p2928
sI2926
Vminimum
p2929
sI2927
Vwage
p2930
sI2928
Vsamples
p2931
sI2929
Vchoosing
p2932
sI2930
Vinterrupting
p2933
sI2931
Varcheologist
p2934
sI2932
Venrolled
p2935
sI2933
Vcountry
p2936
sI2934
Vconcerns
p2937
sI2935
Vunsatisfied
p2938
sI2936
Vviolin
p2939
sI2937
Vtowards
p2940
sI2938
Vknives
p2941
sI2939
Vdecided
p2942
sI2940
Vheart
p2943
sI2941
Vexperiences
p2944
sI2942
Vlagging
p2945
sI2943
Vcotton
p2946
sI2944
Vvulgar
p2947
sI2945
Vchristmas
p2948
sI2946
Vinsults
p2949
sI2947
Ventertain
p2950
sI2948
Vrequest
p2951
sI2949
Vignorance
p2952
sI2950
Vchained
p2953
sI2951
Vobliged
p2954
sI2952
Vaback
p2955
sI2953
Vrudeness
p2956
sI2954
Vmumps
p2957
sI2955
Vspend
p2958
sI2956
Vizu
p2959
sI2957
Vdemonstration
p2960
sI2958
Vcompared
p2961
sI2959
Vapparently
p2962
sI2960
Vtwenty
p2963
sI2961
Vsnow
p2964
sI2962
Vsemester
p2965
sI2963
Vcharged
p2966
sI2964
Vwhich
p2967
sI2965
Vwear
p2968
sI2966
Vastonishment
p2969
sI2967
Vnewspapers
p2970
sI2968
Vspraying
p2971
sI2969
Vfantasy
p2972
sI2970
Vplanet
p2973
sI2971
Vhawaii
p2974
sI2972
Vinterruption
p2975
sI2973
Vcreek
p2976
sI2974
Vpaddle
p2977
sI2975
Vlimited
p2978
sI2976
Vbudget
p2979
sI2977
Vschoolgirl
p2980
sI2978
Vresponsibility
p2981
sI2979
Vhumanity
p2982
sI2980
Vreporter
p2983
sI2981
Vairplane
p2984
sI2982
Vmadly
p2985
sI2983
Vaccident
p2986
sI2984
Vprivate
p2987
sI2985
Vsecretary
p2988
sI2986
Vwandering
p2989
sI2987
Vtrance
p2990
sI2988
Vchairman
p2991
sI2989
Vhyogo
p2992
sI2990
Vwhether
p2993
sI2991
Vrepairing
p2994
sI2992
Vweeks
p2995
sI2993
Vyawning
p2996
sI2994
Vseldom
p2997
sI2995
Vaddress
p2998
sI2996
Vworry
p2999
sI2997
Vexplanation
p3000
sI2998
Vpaper
p3001
sI2999
Vpetty
p3002
sI3000
Vargument
p3003
sI3001
Voriental
p3004
sI3002
Vpottery
p3005
sI3003
Vpoets
p3006
sI3004
Vclassifying
p3007
sI3005
Vdozing
p3008
sI3006
Vcrutches
p3009
sI3007
Vkept
p3010
sI3008
Vconnected
p3011
sI3009
Vlake
p3012
sI3010
Vspends
p3013
sI3011
Vstudied
p3014
sI3012
Vpaintings
p3015
sI3013
Vplanting
p3016
sI3014
Vroses
p3017
sI3015
Vfinancial
p3018
sI3016
Vsunbathing
p3019
sI3017
Vinconvenience
p3020
sI3018
Vours
p3021
sI3019
Vdifficult
p3022
sI3020
Vrecovery
p3023
sI3021
Vmillionth
p3024
sI3022
Vanticipating
p3025
sI3023
Vcirculation
p3026
sI3024
Vprize
p3027
sI3025
Vtechnique
p3028
sI3026
Vpat
p3029
sI3027
Vstir
p3030
sI3028
Vmayan
p3031
sI3029
Vprophecies
p3032
sI3030
Voxford
p3033
sI3031
Vaccustoming
p3034
sI3032
Vstyle
p3035
sI3033
Vforeign
p3036
sI3034
Vinvitation
p3037
sI3035
Vhistory
p3038
sI3036
Vaffair
p3039
sI3037
Vprotection
p3040
sI3038
Vassure
p3041
sI3039
Vsuitcases
p3042
sI3040
Vdeny
p3043
sI3041
Vconscious
p3044
sI3042
Vpresence
p3045
sI3043
Vperseverance
p3046
sI3044
Vconversation
p3047
sI3045
Vinternal
p3048
sI3046
Vkorea
p3049
sI3047
Vmobile
p3050
sI3048
Vworked
p3051
sI3049
Videntification
p3052
sI3050
Vdecisions
p3053
sI3051
Vstammers
p3054
sI3052
Vfeels
p3055
sI3053
Vstarts
p3056
sI3054
Vseven
p3057
sI3055
Vpersonal
p3058
sI3056
Vbelongings
p3059
sI3057
Vfaced
p3060
sI3058
Vlousy
p3061
sI3059
Vdirection
p3062
sI3060
Vfinding
p3063
sI3061
Voranges
p3064
sI3062
Vlatin
p3065
sI3063
Vhumanities
p3066
sI3064
Vculture
p3067
sI3065
Vpreparations
p3068
sI3066
Vadvocate
p3069
sI3067
Vafternoons
p3070
sI3068
Vadding
p3071
sI3069
Vtouches
p3072
sI3070
Vdiscounting
p3073
sI3071
Vrelationship
p3074
sI3072
Vbathing
p3075
sI3073
Vsuit
p3076
sI3074
Vscheduled
p3077
sI3075
Vstrongly
p3078
sI3076
Vopposed
p3079
sI3077
Vcompromise
p3080
sI3078
Vpainted
p3081
sI3079
Vendowed
p3082
sI3080
Vtalent
p3083
sI3081
Vmisconduct
p3084
sI3082
Vnecklace
p3085
sI3083
Vsince
p3086
sI3084
Vwednesday
p3087
sI3085
Vcollecting
p3088
sI3086
Vmaterial
p3089
sI3087
Vbreadwinner
p3090
sI3088
Vestimate
p3091
sI3089
Vchoice
p3092
sI3090
Vhost
p3093
sI3091
Vinfluenced
p3094
sI3092
Venvironment
p3095
sI3093
Vlaws
p3096
sI3094
Vsearch
p3097
sI3095
Vwhole
p3098
sI3096
Vchoices
p3099
sI3097
Vcut
p3100
sI3098
Vexpenses
p3101
sI3099
Vplanted
p3102
sI3100
Vleeds
p3103
sI3101
Vconfronted
p3104
sI3102
Vvaluing
p3105
sI3103
Vantiques
p3106
sI3104
Vholding
p3107
sI3105
Vlaunch
p3108
sI3106
Vliterature
p3109
sI3107
Vbiology
p3110
sI3108
Vleading
p3111
sI3109
Vimpressionable
p3112
sI3110
Vtill
p3113
sI3111
Vstories
p3114
sI3112
Vvivendi
p3115
sI3113
Vfile
p3116
sI3114
Vdisclose
p3117
sI3115
Vscenery
p3118
sI3116
Vgreatly
p3119
sI3117
Vdoghouse
p3120
sI3118
Vdictionary
p3121
sI3119
Vacted
p3122
sI3120
Vfoolishly
p3123
sI3121
Vacquaintance
p3124
sI3122
Vbjork
p3125
sI3123
Vlatest
p3126
sI3124
Vordering
p3127
sI3125
Vcompliments
p3128
sI3126
Vearns
p3129
sI3127
Vstacked
p3130
sI3128
Vtrays
p3131
sI3129
Vcupboard
p3132
sI3130
Vsuffers
p3133
sI3131
Vdisease
p3134
sI3132
Vastronomy
p3135
sI3133
Voverfishing
p3136
sI3134
Voceans
p3137
sI3135
Vparish
p3138
sI3136
Vgenerally
p3139
sI3137
Vdevelop
p3140
sI3138
Vsales
p3141
sI3139
Vspitting
p3142
sI3140
Vfinancially
p3143
sI3141
Vswedish
p3144
sI3142
Vpulse
p3145
sI3143
Vquickening
p3146
sI3144
Vuseful
p3147
sI3145
Vconceive
p3148
sI3146
Vdivorce
p3149
sI3147
Vlistened
p3150
sI3148
Vwarnings
p3151
sI3149
Vorchestra
p3152
sI3150
Vear
p3153
sI3151
Vtakes
p3154
sI3152
Vresembles
p3155
sI3153
Vattending
p3156
sI3154
Vweb
p3157
sI3155
Vdesign
p3158
sI3156
Vholidays
p3159
sI3157
Vyourselves
p3160
sI3158
Vmountains
p3161
sI3159
Vevidence
p3162
sI3160
Vprofoundly
p3163
sI3161
Vgrandchildren
p3164
sI3162
Vspread
p3165
sI3163
Vcloth
p3166
sI3164
Vtable
p3167
sI3165
Vmeasuring
p3168
sI3166
Vdepth
p3169
sI3167
Vinterest
p3170
sI3168
Vweakness
p3171
sI3169
Vdiplomat
p3172
sI3170
Vembassy
p3173
sI3171
Virritating
p3174
sI3172
Velection
p3175
sI3173
Vrecovering
p3176
sI3174
Vappointments
p3177
sI3175
Vmotorcycle
p3178
sI3176
Vreceding
p3179
sI3177
Vhairline
p3180
sI3178
Vparasol
p3181
sI3179
Vtelephoned
p3182
sI3180
Vrang
p3183
sI3181
Vsudden
p3184
sI3182
Vconsidered
p3185
sI3183
Vclassical
p3186
sI3184
Vexceedingly
p3187
sI3185
Vexpressing
p3188
sI3186
Vhugging
p3189
sI3187
Vencouraged
p3190
sI3188
Vimagination
p3191
sI3189
Vharvest
p3192
sI3190
Vhospitality
p3193
sI3191
Vwhatever
p3194
sI3192
Vdisturbing
p3195
sI3193
Vneighborhood
p3196
sI3194
Vrumors
p3197
sI3195
Vrendered
p3198
sI3196
Vparticularily
p3199
sI3197
Vaccepted
p3200
sI3198
Vchiseling
p3201
sI3199
Vstatue
p3202
sI3200
Vmarble
p3203
sI3201
Vmatters
p3204
sI3202
Vdiscuss
p3205
sI3203
Vcountries
p3206
sI3204
Vdissatisfaction
p3207
sI3205
Vconvince
p3208
sI3206
Velectricity
p3209
sI3207
Vhomes
p3210
sI3208
Veconomically
p3211
sI3209
Vspokesperson
p3212
sI3210
Vorganization
p3213
sI3211
Vrecognized
p3214
sI3212
Virresponsible
p3215
sI3213
Vattitude
p3216
sI3214
Vsavings
p3217
sI3215
Vaccount
p3218
sI3216
Vreceiving
p3219
sI3217
Vreply
p3220
sI3218
Vnarita
p3221
sI3219
Vgrappling
p3222
sI3220
Vbeliefs
p3223
sI3221
Vinterpreter
p3224
sI3222
Vinternational
p3225
sI3223
Vbehave
p3226
sI3224
Vdisappeared
p3227
sI3225
Vfoggy
p3228
sI3226
Vforest
p3229
sI3227
Vpublication
p3230
sI3228
Vcritical
p3231
sI3229
Vshortcomings
p3232
sI3230
Vsusceptible
p3233
sI3231
Vhypnotic
p3234
sI3232
Vjackson
p3235
sI3233
Vexperiments
p3236
sI3234
Vlaboratory
p3237
sI3235
Vsuggest
p3238
sI3236
Vcompiling
p3239
sI3237
Vsoftware
p3240
sI3238
Vcontributions
p3241
sI3239
Vpresidential
p3242
sI3240
Vcandidates
p3243
ssVn_words
p3244
I3241
sVword2index
p3245
(dp3246
g2562
I2559
sg2978
I2975
sg2874
I2871
sg2177
I2174
sg2325
I2322
sg1950
I1947
sg2030
I2027
sg412
I409
sg487
I484
sg1918
I1915
sg609
I606
sg262
I259
sg907
I904
sg2102
I2099
sg2312
I2309
sg313
I310
sg1495
I1492
sg2475
I2472
sg2297
I2294
sg2760
I2757
sg1295
I1292
sg986
I983
sg79
I76
sg2159
I2156
sg2130
I2127
sg500
I497
sg1019
I1016
sg3137
I3134
sg1588
I1585
sg2195
I2192
sg770
I767
sg2228
I2225
sg1115
I1112
sg2394
I2391
sg1040
I1037
sg2831
I2828
sg110
I107
sg2536
I2533
sg2757
I2754
sg3148
I3145
sg2276
I2273
sg802
I799
sg1312
I1309
sg2501
I2498
sg1849
I1846
sg1628
I1625
sg1953
I1950
sg1543
I1540
sg2881
I2878
sg82
I79
sg1921
I1918
sg2571
I2568
sg401
I398
sg3145
I3142
sg3041
I3038
sg1207
I1204
sg958
I955
sg2328
I2325
sg149
I146
sg755
I752
sg2078
I2075
sg1036
I1033
sg333
I330
sg2227
I2224
sg281
I278
sg2850
I2847
sg1695
I1692
sg1670
I1667
sg2540
I2537
sg469
I466
sg54
I51
sg3042
I3039
sg2799
I2796
sg1587
I1584
sg1735
I1732
sg2820
I2817
sg108
I105
sg2163
I2160
sg861
I858
sg148
I145
sg1273
I1270
sg932
I929
sg49
I46
sg1205
I1202
sg1413
I1410
sg2290
I2287
sg481
I478
sg2696
I2693
sg491
I488
sg1451
I1448
sg1188
I1185
sg1085
I1082
sg1965
I1962
sg1189
I1186
sg1469
I1466
sg3209
I3206
sg2845
I2842
sg413
I410
sg1585
I1582
sg2580
I2577
sg1313
I1310
sg1336
I1333
sg2533
I2530
sg2590
I2587
sg1590
I1587
sg2574
I2571
sg2410
I2407
sg1467
I1464
sg1035
I1032
sg809
I806
sg930
I927
sg1856
I1853
sg1680
I1677
sg2239
I2236
sg2191
I2188
sg1169
I1166
sg23
I20
sg2545
I2542
sg410
I407
sg382
I379
sg1556
I1553
sg679
I676
sg1225
I1222
sg607
I604
sg184
I181
sg2758
I2755
sg1042
I1039
sg1196
I1193
sg2741
I2738
sg294
I291
sg2057
I2054
sg2736
I2733
sg2038
I2035
sg2806
I2803
sg391
I388
sg828
I825
sg1024
I1021
sg300
I297
sg1619
I1616
sg2320
I2317
sg196
I193
sg349
I346
sg2277
I2274
sg302
I299
sg2611
I2608
sg167
I164
sg1262
I1259
sg3207
I3204
sg774
I771
sg133
I130
sg1883
I1880
sg1141
I1138
sg2920
I2917
sg1836
I1833
sg1376
I1373
sg1666
I1663
sg2780
I2777
sg2928
I2925
sg2224
I2221
sg3023
I3020
sg1444
I1441
sg1427
I1424
sg2688
I2685
sg1596
I1593
sg266
I263
sg2610
I2607
sg784
I781
sg2145
I2142
sg1321
I1318
sg86
I83
sg1280
I1277
sg2534
I2531
sg2554
I2551
sg1371
I1368
sg1687
I1684
sg345
I342
sg2061
I2058
sg1215
I1212
sg623
I620
sg1692
I1689
sg395
I392
sg390
I387
sg2390
I2387
sg186
I183
sg2522
I2519
sg2117
I2114
sg2846
I2843
sg2199
I2196
sg3179
I3176
sg651
I648
sg3234
I3231
sg974
I971
sg1310
I1307
sg2012
I2009
sg927
I924
sg2379
I2376
sg476
I473
sg1034
I1031
sg1490
I1487
sg1363
I1360
sg1107
I1104
sg1319
I1316
sg447
I444
sg470
I467
sg539
I536
sg1751
I1748
sg968
I965
sg2527
I2524
sg1343
I1340
sg10
I7
sg1560
I1557
sg2435
I2432
sg277
I274
sg1255
I1252
sg800
I797
sg3201
I3198
sg2995
I2992
sg2142
I2139
sg872
I869
sg879
I876
sg538
I535
sg2884
I2881
sg3171
I3168
sg611
I608
sg36
I33
sg1769
I1766
sg2722
I2719
sg259
I256
sg2369
I2366
sg1043
I1040
sg882
I879
sg1008
I1005
sg2463
I2460
sg859
I856
sg2487
I2484
sg2337
I2334
sg2698
I2695
sg604
I601
sg2398
I2395
sg291
I288
sg2559
I2556
sg732
I729
sg836
I833
sg2087
I2084
sg215
I212
sg2975
I2972
sg2124
I2121
sg3018
I3015
sg1694
I1691
sg2429
I2426
sg1309
I1306
sg2671
I2668
sg3087
I3084
sg2674
I2671
sg715
I712
sg3109
I3106
sg1436
I1433
sg113
I110
sg2011
I2008
sg2113
I2110
sg1682
I1679
sg206
I203
sg2127
I2124
sg229
I226
sg3031
I3028
sg187
I184
sg979
I976
sg1480
I1477
sg88
I85
sg2640
I2637
sg2563
I2560
sg2651
I2648
sg837
I834
sg1317
I1314
sg1294
I1291
sg3058
I3055
sg876
I873
sg1392
I1389
sg29
I26
sg760
I757
sg3177
I3174
sg1978
I1975
sg2420
I2417
sg3091
I3088
sg1927
I1924
sg1190
I1187
sg820
I817
sg3230
I3227
sg3176
I3173
sg2613
I2610
sg2005
I2002
sg3056
I3053
sg404
I401
sg2606
I2603
sg2190
I2187
sg2395
I2392
sg3061
I3058
sg1998
I1995
sg960
I957
sg1482
I1479
sg130
I127
sg719
I716
sg3183
I3180
sg885
I882
sg1888
I1885
sg1805
I1802
sg1488
I1485
sg1593
I1590
sg423
I420
sg78
I75
sg1142
I1139
sg2301
I2298
sg2690
I2687
sg2059
I2056
sg1404
I1401
sg2157
I2154
sg1900
I1897
sg833
I830
sg3106
I3103
sg1741
I1738
sg737
I734
sg1125
I1122
sg188
I185
sg445
I442
sg1553
I1550
sg592
I589
sg1210
I1207
sg1227
I1224
sg583
I580
sg3164
I3161
sg903
I900
sg2473
I2470
sg1314
I1311
sg1799
I1796
sg1246
I1243
sg144
I141
sg526
I523
sg1041
I1038
sg2206
I2203
sg1899
I1896
sg287
I284
sg2896
I2893
sg1348
I1345
sg1160
I1157
sg2452
I2449
sg2478
I2475
sg376
I373
sg534
I531
sg624
I621
sg2160
I2157
sg722
I719
sg1668
I1665
sg1750
I1747
sg2897
I2894
sg403
I400
sg452
I449
sg2184
I2181
sg360
I357
sg2852
I2849
sg244
I241
sg1929
I1926
sg1738
I1735
sg1194
I1191
sg1617
I1614
sg1565
I1562
sg2964
I2961
sg342
I339
sg2287
I2284
sg649
I646
sg1399
I1396
sg508
I505
sg622
I619
sg3000
I2997
sg2339
I2336
sg2746
I2743
sg2247
I2244
sg343
I340
sg1446
I1443
sg2900
I2897
sg1745
I1742
sg700
I697
sg1610
I1607
sg3213
I3210
sg2255
I2252
sg1526
I1523
sg764
I761
sg2220
I2217
sg2201
I2198
sg847
I844
sg6
I3
sg257
I254
sg793
I790
sg2958
I2955
sg2862
I2859
sg2100
I2097
sg2591
I2588
sg478
I475
sg2585
I2582
sg2490
I2487
sg1872
I1869
sg70
I67
sg471
I468
sg556
I553
sg1405
I1402
sg3152
I3149
sg1606
I1603
sg856
I853
sg1137
I1134
sg849
I846
sg1158
I1155
sg420
I417
sg1990
I1987
sg3072
I3069
sg22
I19
sg2222
I2219
sg2569
I2566
sg494
I491
sg408
I405
sg1491
I1488
sg248
I245
sg48
I45
sg3123
I3120
sg2773
I2770
sg1330
I1327
sg173
I170
sg1891
I1888
sg1677
I1674
sg696
I693
sg2754
I2751
sg866
I863
sg2927
I2924
sg1988
I1985
sg2834
I2831
sg2296
I2293
sg2898
I2895
sg852
I849
sg157
I154
sg1304
I1301
sg1144
I1141
sg1824
I1821
sg2250
I2247
sg3212
I3209
sg2508
I2505
sg1742
I1739
sg1251
I1248
sg152
I149
sg2200
I2197
sg292
I289
sg1143
I1140
sg2600
I2597
sg2396
I2393
sg1306
I1303
sg3139
I3136
sg2409
I2406
sg2614
I2611
sg393
I390
sg2324
I2321
sg2639
I2636
sg3107
I3104
sg2063
I2060
sg1060
I1057
sg1353
I1350
sg642
I639
sg2660
I2657
sg724
I721
sg926
I923
sg104
I101
sg2983
I2980
sg831
I828
sg1452
I1449
sg2665
I2662
sg3157
I3154
sg1690
I1687
sg1776
I1773
sg2694
I2691
sg87
I84
sg1337
I1334
sg2034
I2031
sg1779
I1776
sg1394
I1391
sg43
I40
sg977
I974
sg340
I337
sg2219
I2216
sg2968
I2965
sg1492
I1489
sg881
I878
sg2494
I2491
sg995
I992
sg1346
I1343
sg2602
I2599
sg56
I53
sg1016
I1013
sg1696
I1693
sg2450
I2447
sg13
I10
sg462
I459
sg2023
I2020
sg564
I561
sg2507
I2504
sg3040
I3037
sg2069
I2066
sg1595
I1592
sg3103
I3100
sg1890
I1887
sg3104
I3101
sg2083
I2080
sg530
I527
sg3238
I3235
sg83
I80
sg2044
I2041
sg3215
I3212
sg729
I726
sg3180
I3177
sg2583
I2580
sg2187
I2184
sg2791
I2788
sg1418
I1415
sg127
I124
sg214
I211
sg1726
I1723
sg1037
I1034
sg2955
I2952
sg1684
I1681
sg3002
I2999
sg2406
I2403
sg1361
I1358
sg1461
I1458
sg7
I4
sg435
I432
sg1105
I1102
sg933
I930
sg3170
I3167
sg1167
I1164
sg1948
I1945
sg804
I801
sg984
I981
sg2281
I2278
sg2263
I2260
sg460
I457
sg1784
I1781
sg2040
I2037
sg546
I543
sg1820
I1817
sg1315
I1312
sg3097
I3094
sg3003
I3000
sg3024
I3021
sg738
I735
sg1963
I1960
sg3051
I3048
sg2485
I2482
sg2796
I2793
sg1589
I1586
sg1084
I1081
sg42
I39
sg1708
I1705
sg2481
I2478
sg781
I778
sg3225
I3222
sg1597
I1594
sg2272
I2269
sg2120
I2117
sg2368
I2365
sg3057
I3054
sg1828
I1825
sg2164
I2161
sg3120
I3117
sg45
I42
sg174
I171
sg3101
I3098
sg1523
I1520
sg180
I177
sg2825
I2822
sg124
I121
sg2939
I2936
sg2427
I2424
sg2031
I2028
sg2361
I2358
sg1603
I1600
sg832
I829
sg2264
I2261
sg2767
I2764
sg1916
I1913
sg687
I684
sg1604
I1601
sg1629
I1626
sg629
I626
sg698
I695
sg1688
I1685
sg2444
I2441
sg2720
I2717
sg2742
I2739
sg895
I892
sg3069
I3066
sg2353
I2350
sg1844
I1841
sg2105
I2102
sg320
I317
sg2327
I2324
sg216
I213
sg902
I899
sg3008
I3005
sg2662
I2659
sg1548
I1545
sg824
I821
sg3010
I3007
sg3204
I3201
sg121
I118
sg928
I925
sg1334
I1331
sg1715
I1712
sg3217
I3214
sg1494
I1491
sg552
I549
sg1355
I1352
sg339
I336
sg84
I81
sg1027
I1024
sg1594
I1591
sg455
I452
sg1767
I1764
sg2138
I2135
sg2752
I2749
sg139
I136
sg517
I514
sg3143
I3140
sg1386
I1383
sg565
I562
sg92
I89
sg1866
I1863
sg798
I795
sg668
I665
sg3071
I3068
sg1208
I1205
sg2915
I2912
sg1202
I1199
sg2869
I2866
sg2106
I2103
sg3119
I3116
sg636
I633
sg1940
I1937
sg314
I311
sg533
I530
sg944
I941
sg1331
I1328
sg2982
I2979
sg1110
I1107
sg2161
I2158
sg2967
I2964
sg2766
I2763
sg2925
I2922
sg2331
I2328
sg2259
I2256
sg1802
I1799
sg2901
I2898
sg1842
I1839
sg2146
I2143
sg940
I937
sg2499
I2496
sg1969
I1966
sg2765
I2762
sg2074
I2071
sg1892
I1889
sg1609
I1606
sg2823
I2820
sg159
I156
sg1681
I1678
sg705
I702
sg446
I443
sg1693
I1690
sg1578
I1575
sg2692
I2689
sg77
I74
sg46
I43
sg2976
I2973
sg1839
I1836
sg1278
I1275
sg1234
I1231
sg25
I22
sg256
I253
sg689
I686
sg2910
I2907
sg1449
I1446
sg3175
I3172
sg1975
I1972
sg2036
I2033
sg2103
I2100
sg2171
I2168
sg839
I836
sg759
I756
sg258
I255
sg298
I295
sg1282
I1279
sg1712
I1709
sg2115
I2112
sg389
I386
sg2948
I2945
sg2550
I2547
sg2001
I1998
sg1365
I1362
sg2426
I2423
sg1575
I1572
sg3053
I3050
sg3227
I3224
sg1787
I1784
sg662
I659
sg1901
I1898
sg1498
I1495
sg129
I126
sg921
I918
sg136
I133
sg2502
I2499
sg1648
I1645
sg2436
I2433
sg758
I755
sg1477
I1474
sg2654
I2651
sg2065
I2062
sg2812
I2809
sg3011
I3008
sg1192
I1189
sg1439
I1436
sg2243
I2240
sg1710
I1707
sg1070
I1067
sg1198
I1195
sg3045
I3042
sg1499
I1496
sg797
I794
sg2519
I2516
sg2101
I2098
sg399
I396
sg943
I940
sg2283
I2280
sg1209
I1206
sg2412
I2409
sg1874
I1871
sg870
I867
sg2579
I2576
sg2510
I2507
sg1972
I1969
sg2374
I2371
sg1015
I1012
sg2336
I2333
sg1224
I1221
sg80
I77
sg2377
I2374
sg464
I461
sg1584
I1581
sg53
I50
sg364
I361
sg261
I258
sg1263
I1260
sg1685
I1682
sg1885
I1882
sg2432
I2429
sg3237
I3234
sg2620
I2617
sg444
I441
sg2520
I2517
sg1968
I1965
sg542
I539
sg566
I563
sg1460
I1457
sg2046
I2043
sg2555
I2552
sg2886
I2883
sg1240
I1237
sg369
I366
sg2524
I2521
sg135
I132
sg2209
I2206
sg2566
I2563
sg501
I498
sg1632
I1629
sg1992
I1989
sg799
I796
sg1720
I1717
sg1675
I1672
sg377
I374
sg2726
I2723
sg1445
I1442
sg1661
I1658
sg674
I671
sg1868
I1865
sg2926
I2923
sg2951
I2948
sg3222
I3219
sg1558
I1555
sg392
I389
sg1411
I1408
sg2800
I2797
sg3009
I3006
sg303
I300
sg67
I64
sg221
I218
sg810
I807
sg1886
I1883
sg735
I732
sg585
I582
sg428
I425
sg2530
I2527
sg1368
I1365
sg772
I769
sg1936
I1933
sg2356
I2353
sg633
I630
sg1974
I1971
sg654
I651
sg2265
I2262
sg1126
I1123
sg463
I460
sg2140
I2137
sg1878
I1875
sg1908
I1905
sg321
I318
sg2307
I2304
sg1944
I1941
sg1200
I1197
sg1424
I1421
sg116
I113
sg1277
I1274
sg807
I804
sg1472
I1469
sg2748
I2745
sg72
I69
sg1135
I1132
sg854
I851
sg235
I232
sg2911
I2908
sg2175
I2172
sg975
I972
sg1063
I1060
sg2114
I2111
sg1121
I1118
sg1986
I1983
sg172
I169
sg2974
I2971
sg1432
I1429
sg1613
I1610
sg1725
I1722
sg553
I550
sg1226
I1223
sg1534
I1531
sg1106
I1103
sg751
I748
sg2677
I2674
sg2923
I2920
sg2482
I2479
sg2650
I2647
sg2428
I2425
sg3028
I3025
sg846
I843
sg1117
I1114
sg2483
I2480
sg3095
I3092
sg1947
I1944
sg693
I690
sg893
I890
sg2136
I2133
sg3146
I3143
sg2471
I2468
sg1535
I1532
sg160
I157
sg1463
I1460
sg2638
I2635
sg2493
I2490
sg94
I91
sg664
I661
sg673
I670
sg1645
I1642
sg2546
I2543
sg264
I261
sg2167
I2164
sg1051
I1048
sg1010
I1007
sg619
I616
sg411
I408
sg2914
I2911
sg362
I359
sg1000
I997
sg560
I557
sg860
I857
sg488
I485
sg1897
I1894
sg2107
I2104
sg677
I674
sg904
I901
sg1789
I1786
sg2362
I2359
sg2430
I2427
sg1522
I1519
sg2511
I2508
sg226
I223
sg635
I632
sg2433
I2430
sg3034
I3031
sg2716
I2713
sg2847
I2844
sg3134
I3131
sg1509
I1506
sg1660
I1657
sg2037
I2034
sg2054
I2051
sg479
I476
sg1249
I1246
sg771
I768
sg883
I880
sg402
I399
sg106
I103
sg1912
I1909
sg996
I993
sg2950
I2947
sg1905
I1902
sg2998
I2995
sg59
I56
sg1736
I1733
sg425
I422
sg1328
I1325
sg100
I97
sg2194
I2191
sg537
I534
sg143
I140
sg518
I515
sg213
I210
sg3014
I3011
sg593
I590
sg189
I186
sg2778
I2775
sg2467
I2464
sg647
I644
sg2252
I2249
sg3193
I3190
sg378
I375
sg2652
I2649
sg934
I931
sg1308
I1305
sg233
I230
sg1152
I1149
sg999
I996
sg2678
I2675
sg682
I679
sg1771
I1768
sg2783
I2780
sg2393
I2390
sg754
I751
sg1673
I1670
sg253
I250
sg311
I308
sg2719
I2716
sg260
I257
sg684
I681
sg2366
I2363
sg2088
I2085
sg725
I722
sg2363
I2360
sg1186
I1183
sg3102
I3099
sg548
I545
sg2480
I2477
sg2561
I2558
sg1923
I1920
sg1092
I1089
sg541
I538
sg2779
I2776
sg2090
I2087
sg1017
I1014
sg2872
I2869
sg2739
I2736
sg1223
I1220
sg1267
I1264
sg2043
I2040
sg1815
I1812
sg2702
I2699
sg2216
I2213
sg1437
I1434
sg734
I731
sg394
I391
sg1303
I1300
sg838
I835
sg829
I826
sg1840
I1837
sg2929
I2926
sg50
I47
sg1664
I1661
sg586
I583
sg2513
I2510
sg2970
I2967
sg1826
I1823
sg64
I61
sg2818
I2815
sg1964
I1961
sg1428
I1425
sg2332
I2329
sg486
I483
sg297
I294
sg295
I292
sg422
I419
sg1149
I1146
sg350
I347
sg911
I908
sg1627
I1624
sg1004
I1001
sg272
I269
sg1120
I1117
sg522
I519
sg2047
I2044
sg3184
I3181
sg1958
I1955
sg1717
I1714
sg123
I120
sg1220
I1217
sg2644
I2641
sg1080
I1077
sg1982
I1979
sg241
I238
sg3094
I3091
sg1129
I1126
sg308
I305
sg540
I537
sg884
I881
sg441
I438
sg2486
I2483
sg2903
I2900
sg223
I220
sg1479
I1476
sg753
I750
sg1147
I1144
sg2404
I2401
sg57
I54
sg1707
I1704
sg1570
I1567
sg863
I860
sg2919
I2916
sg3044
I3041
sg1150
I1147
sg1662
I1659
sg1810
I1807
sg867
I864
sg239
I236
sg39
I36
sg2275
I2272
sg1389
I1386
sg2045
I2042
sg1915
I1912
sg276
I273
sg2116
I2113
sg2568
I2565
sg2934
I2931
sg2455
I2452
sg3142
I3139
sg1320
I1317
sg880
I877
sg1757
I1754
sg3236
I3233
sg1782
I1779
sg24
I21
sg606
I603
sg1747
I1744
sg3200
I3197
sg492
I489
sg1408
I1405
sg1966
I1963
sg736
I733
sg1650
I1647
sg648
I645
sg1065
I1062
sg1713
I1710
sg1678
I1675
sg289
I286
sg3021
I3018
sg2810
I2807
sg2082
I2079
sg2733
I2730
sg942
I939
sg3017
I3014
sg128
I125
sg573
I570
sg608
I605
sg2521
I2518
sg894
I891
sg1311
I1308
sg251
I248
sg169
I166
sg275
I272
sg2373
I2370
sg2685
I2682
sg2681
I2678
sg2000
I1997
sg835
I832
sg1340
I1337
sg888
I885
sg2750
I2747
sg2144
I2141
sg1830
I1827
sg467
I464
sg454
I451
sg550
I547
sg767
I764
sg1761
I1758
sg2229
I2226
sg818
I815
sg220
I217
sg181
I178
sg3065
I3062
sg3007
I3004
sg714
I711
sg529
I526
sg2697
I2694
sg1852
I1849
sg1033
I1030
sg2110
I2107
sg2017
I2014
sg1305
I1302
sg1654
I1651
sg3235
I3232
sg2841
I2838
sg2291
I2288
sg1406
I1403
sg571
I568
sg1577
I1574
sg1793
I1790
sg2411
I2408
sg621
I618
sg329
I326
sg2474
I2471
sg3219
I3216
sg202
I199
sg2907
I2904
sg1056
I1053
sg2735
I2732
sg2567
I2564
sg749
I746
sg238
I235
sg317
I314
sg1354
I1351
sg1414
I1411
sg2442
I2439
sg2859
I2856
sg140
I137
sg436
I433
sg379
I376
sg120
I117
sg1388
I1385
sg711
I708
sg1672
I1669
sg3037
I3034
sg2039
I2036
sg1798
I1795
sg747
I744
sg69
I66
sg62
I59
sg900
I897
sg1571
I1568
sg1291
I1288
sg474
I471
sg2824
I2821
sg406
I403
sg2418
I2415
sg2392
I2389
sg1723
I1720
sg2019
I2016
sg1547
I1544
sg1298
I1295
sg1546
I1543
sg535
I532
sg1362
I1359
sg2815
I2812
sg710
I707
sg2867
I2864
sg1050
I1047
sg1032
I1029
sg2509
I2506
sg2141
I2138
sg2439
I2436
sg2085
I2082
sg2270
I2267
sg650
I647
sg2683
I2680
sg1385
I1382
sg242
I239
sg2006
I2003
sg336
I333
sg1961
I1958
sg681
I678
sg3232
I3229
sg358
I355
sg2246
I2243
sg1079
I1076
sg1350
I1347
sg1884
I1881
sg615
I612
sg2909
I2906
sg2912
I2909
sg438
I435
sg1116
I1113
sg2348
I2345
sg1733
I1730
sg2941
I2938
sg1358
I1355
sg1203
I1200
sg1159
I1156
sg163
I160
sg2989
I2986
sg851
I848
sg998
I995
sg2027
I2024
sg2168
I2165
sg626
I623
sg653
I650
sg2670
I2667
sg1857
I1854
sg14
I11
sg1932
I1929
sg176
I173
sg658
I655
sg2072
I2069
sg2710
I2707
sg1078
I1075
sg1409
I1406
sg1374
I1371
sg1260
I1257
sg1082
I1079
sg1800
I1797
sg1880
I1877
sg702
I699
sg916
I913
sg236
I233
sg2621
I2618
sg2865
I2862
sg1545
I1542
sg2603
I2600
sg3190
I3187
sg788
I785
sg2988
I2985
sg1644
I1641
sg38
I35
sg273
I270
sg131
I128
sg742
I739
sg2217
I2214
sg2453
I2450
sg657
I654
sg1934
I1931
sg660
I657
sg897
I894
sg1557
I1554
sg3166
I3163
sg3185
I3182
sg2365
I2362
sg1979
I1976
sg919
I916
sg122
I119
sg1138
I1135
sg217
I214
sg523
I520
sg387
I384
sg2549
I2546
sg3096
I3093
sg652
I649
sg2844
I2841
sg988
I985
sg351
I348
sg864
I861
sg1554
I1551
sg1172
I1169
sg1163
I1160
sg1902
I1899
sg510
I507
sg2581
I2578
sg1075
I1072
sg397
I394
sg2609
I2606
sg596
I593
sg1817
I1814
sg746
I743
sg71
I68
sg2346
I2343
sg162
I159
sg1014
I1011
sg2658
I2655
sg536
I533
sg544
I541
sg1869
I1866
sg1338
I1335
sg1808
I1805
sg712
I709
sg757
I754
sg2971
I2968
sg1103
I1100
sg1286
I1283
sg970
I967
sg896
I893
sg231
I228
sg429
I426
sg2922
I2919
sg2997
I2994
sg554
I551
sg254
I251
sg1066
I1063
sg2727
I2724
sg285
I282
sg2512
I2509
sg2233
I2230
sg2343
I2340
sg2777
I2774
sg666
I663
sg1048
I1045
sg2808
I2805
sg2070
I2067
sg2838
I2835
sg477
I474
sg2094
I2091
sg2026
I2023
sg948
I945
sg3084
I3081
sg1806
I1803
sg2004
I2001
sg316
I313
sg578
I575
sg776
I773
sg889
I886
sg2438
I2435
sg655
I652
sg2819
I2816
sg2816
I2813
sg890
I887
sg3147
I3144
sg305
I302
sg2798
I2795
sg908
I905
sg961
I958
sg166
I163
sg2617
I2614
sg938
I935
sg1910
I1907
sg93
I90
sg2326
I2323
sg1714
I1711
sg1322
I1319
sg819
I816
sg2204
I2201
sg2268
I2265
sg75
I72
sg1760
I1757
sg2367
I2364
sg2441
I2438
sg18
I15
sg1081
I1078
sg225
I222
sg1471
I1468
sg1382
I1379
sg1525
I1522
sg717
I714
sg2154
I2151
sg480
I477
sg3077
I3074
sg1233
I1230
sg2232
I2229
sg1529
I1526
sg2721
I2718
sg726
I723
sg111
I108
sg1803
I1800
sg945
I942
sg1031
I1028
sg745
I742
sg1397
I1394
sg572
I569
sg1465
I1462
sg1012
I1009
sg1924
I1921
sg3062
I3059
sg2589
I2586
sg1643
I1640
sg1530
I1527
sg3221
I3218
sg2419
I2416
sg2317
I2314
sg2302
I2299
sg431
I428
sg2829
I2826
sg1001
I998
sg1038
I1035
sg1510
I1507
sg3130
I3127
sg2189
I2186
sg2466
I2463
sg137
I134
sg2295
I2292
sg2415
I2412
sg2253
I2250
sg1917
I1914
sg2081
I2078
sg954
I951
sg1728
I1725
sg1136
I1133
sg1269
I1266
sg3082
I3079
sg237
I234
sg207
I204
sg1481
I1478
sg1069
I1066
sg335
I332
sg414
I411
sg47
I44
sg2391
I2388
sg2148
I2145
sg2711
I2708
sg931
I928
sg2999
I2996
sg440
I437
sg468
I465
sg3029
I3026
sg1502
I1499
sg528
I525
sg2071
I2068
sg2586
I2583
sg644
I641
sg790
I787
sg3239
I3236
sg2461
I2458
sg1454
I1451
sg1177
I1174
sg2286
I2283
sg547
I544
sg701
I698
sg1221
I1218
sg1127
I1124
sg978
I975
sg2623
I2620
sg383
I380
sg1270
I1267
sg1630
I1627
sg3202
I3199
sg1095
I1092
sg1071
I1068
sg2294
I2291
sg209
I206
sg2084
I2081
sg1602
I1599
sg1954
I1951
sg2022
I2019
sg1438
I1435
sg2073
I2070
sg3173
I3170
sg485
I482
sg2458
I2455
sg2966
I2963
sg1859
I1856
sg2643
I2640
sg645
I642
sg2273
I2270
sg568
I565
sg1288
I1285
sg2468
I2465
sg2112
I2109
sg2212
I2209
sg521
I518
sg2249
I2246
sg1161
I1158
sg549
I546
sg1283
I1280
sg1216
I1213
sg1785
I1782
sg2402
I2399
sg309
I306
sg341
I338
sg2676
I2673
sg1020
I1017
sg483
I480
sg858
I855
sg1732
I1729
sg2969
I2966
sg2931
I2928
sg1881
I1878
sg842
I839
sg2498
I2495
sg562
I559
sg337
I334
sg1993
I1990
sg1431
I1428
sg96
I93
sg1025
I1022
sg1562
I1559
sg2033
I2030
sg68
I65
sg2370
I2367
sg456
I453
sg1253
I1250
sg2695
I2692
sg892
I889
sg2208
I2205
sg1977
I1974
sg2840
I2837
sg1402
I1399
sg2016
I2013
sg1783
I1780
sg2734
I2731
sg1342
I1339
sg2705
I2702
sg102
I99
sg2303
I2300
sg1989
I1986
sg1624
I1621
sg2056
I2053
sg126
I123
sg507
I504
sg1377
I1374
sg1935
I1932
sg2582
I2579
sg374
I371
sg1429
I1426
sg1175
I1172
sg1911
I1908
sg2122
I2119
sg2807
I2804
sg1281
I1278
sg2535
I2532
sg3231
I3228
sg3188
I3185
sg1218
I1215
sg638
I635
sg3168
I3165
sg2230
I2227
sg365
I362
sg1740
I1737
sg1706
I1703
sg983
I980
sg1214
I1211
sg581
I578
sg2622
I2619
sg475
I472
sg1507
I1504
sg2245
I2242
sg210
I207
sg2839
I2836
sg224
I221
sg1739
I1736
sg8
I5
sg598
I595
sg1848
I1845
sg906
I903
sg2266
I2263
sg2895
I2892
sg2866
I2863
sg865
I862
sg1073
I1070
sg322
I319
sg957
I954
sg2173
I2170
sg1592
I1589
sg2627
I2624
sg1945
I1942
sg198
I195
sg2299
I2296
sg2817
I2814
sg912
I909
sg2771
I2768
sg2972
I2969
sg398
I395
sg834
I831
sg2225
I2222
sg822
I819
sg646
I643
sg2916
I2913
sg821
I818
sg299
I296
sg2329
I2326
sg141
I138
sg1274
I1271
sg1574
I1571
sg594
I591
sg723
I720
sg929
I926
sg2202
I2199
sg1213
I1210
sg1391
I1388
sg1091
I1088
sg2664
I2661
sg388
I385
sg1569
I1566
sg2728
I2725
sg2284
I2281
sg2635
I2632
sg2446
I2443
sg370
I367
sg779
I776
sg112
I109
sg1423
I1420
sg1059
I1056
sg1729
I1726
sg2067
I2064
sg3026
I3023
sg1907
I1904
sg2310
I2307
sg1493
I1490
sg385
I382
sg2761
I2758
sg1877
I1874
sg2092
I2089
sg466
I463
sg3078
I3075
sg359
I356
sg443
I440
sg200
I197
sg361
I358
sg1440
I1437
sg19
I16
sg3141
I3138
sg994
I991
sg1316
I1313
sg3191
I3188
sg1039
I1036
sg195
I192
sg3116
I3113
sg2641
I2638
sg1618
I1615
sg1044
I1041
sg2131
I2128
sg1967
I1964
sg161
I158
sg2342
I2339
sg2686
I2683
sg792
I789
sg1114
I1111
sg1155
I1152
sg805
I802
sg1716
I1713
sg2218
I2215
sg1290
I1287
sg2492
I2489
sg2021
I2018
sg795
I792
sg1217
I1214
sg1724
I1721
sg1222
I1219
sg2717
I2714
sg2826
I2823
sg2183
I2180
sg641
I638
sg1833
I1830
sg1804
I1801
sg449
I446
sg1651
I1648
sg2793
I2790
sg2304
I2301
sg1719
I1716
sg1987
I1984
sg1743
I1740
sg582
I579
sg3155
I3152
sg1478
I1475
sg192
I189
sg3086
I3083
sg109
I106
sg1184
I1181
sg1265
I1262
sg2917
I2914
sg1258
I1255
sg2137
I2134
sg1834
I1831
sg150
I147
sg2701
I2698
sg1332
I1329
sg1777
I1774
sg1183
I1180
sg2642
I2639
sg1323
I1320
sg956
I953
sg1564
I1561
sg2064
I2061
sg199
I196
sg1333
I1330
sg1476
I1473
sg699
I696
sg1679
I1676
sg613
I610
sg2009
I2006
sg1780
I1777
sg1697
I1694
sg2959
I2956
sg132
I129
sg1301
I1298
sg2732
I2729
sg1801
I1798
sg230
I227
sg348
I345
sg9
I6
sg780
I777
sg459
I456
sg844
I841
sg2548
I2545
sg1380
I1377
sg2010
I2007
sg1140
I1137
sg2801
I2798
sg1329
I1326
sg416
I413
sg2708
I2705
sg1232
I1229
sg2504
I2501
sg2713
I2710
sg1621
I1618
sg2924
I2921
sg2882
I2879
sg1087
I1084
sg490
I487
sg3211
I3208
sg1369
I1366
sg2133
I2130
sg3196
I3193
sg589
I586
sg587
I584
sg498
I495
sg2842
I2839
sg796
I793
sg1156
I1153
sg2516
I2513
sg3158
I3155
sg762
I759
sg2248
I2245
sg1841
I1838
sg2594
I2591
sg1656
I1653
sg354
I351
sg2437
I2434
sg2149
I2146
sg2469
I2466
sg1871
I1868
sg1206
I1203
sg1470
I1467
sg1441
I1438
sg616
I613
sg2804
I2801
sg524
I521
sg30
I27
sg634
I631
sg2782
I2779
sg312
I309
sg750
I747
sg2042
I2039
sg2350
I2347
sg2491
I2488
sg1259
I1256
sg2578
I2575
sg142
I139
sg976
I973
sg2629
I2626
sg1822
I1819
sg614
I611
sg513
I510
sg1057
I1054
sg1865
I1862
sg2875
I2872
sg692
I689
sg1401
I1398
sg730
I727
sg1765
I1762
sg1580
I1577
sg632
I629
sg1248
I1245
sg2891
I2888
sg1846
I1843
sg2965
I2962
sg1796
I1793
sg2899
I2896
sg2700
I2697
sg60
I57
sg1879
I1876
sg1807
I1804
sg3154
I3151
sg465
I462
sg1475
I1472
sg2528
I2525
sg2667
I2664
sg3112
I3109
sg959
I956
sg1973
I1970
sg1847
I1844
sg1746
I1743
sg1464
I1461
sg1375
I1372
sg1581
I1578
sg794
I791
sg1646
I1643
sg2637
I2634
sg1182
I1179
sg2077
I2074
sg2849
I2846
sg63
I60
sg2956
I2953
sg1347
I1344
sg731
I728
sg31
I28
sg2634
I2631
sg499
I496
sg2316
I2313
sg2241
I2238
sg2192
I2189
sg2672
I2669
sg987
I984
sg1412
I1409
sg1349
I1346
sg3060
I3057
sg324
I321
sg2648
I2645
sg1601
I1598
sg2543
I2540
sg2207
I2204
sg3181
I3178
sg752
I749
sg3203
I3200
sg3038
I3035
sg433
I430
sg338
I335
sg1925
I1922
sg1999
I1996
sg1370
I1367
sg2861
I2858
sg346
I343
sg2894
I2891
sg2769
I2766
sg2980
I2977
sg1181
I1178
sg2984
I2981
sg1704
I1701
sg2902
I2899
sg12
I9
sg2234
I2231
sg2759
I2756
sg966
I963
sg1151
I1148
sg617
I614
sg602
I599
sg1011
I1008
sg2539
I2536
sg691
I688
sg250
I247
sg2833
I2830
sg3223
I3220
sg3030
I3027
sg618
I615
sg1749
I1746
sg35
I32
sg2121
I2118
sg267
I264
sg2132
I2129
sg1505
I1502
sg2403
I2400
sg1641
I1638
sg164
I161
sg789
I786
sg3140
I3137
sg3092
I3089
sg1045
I1042
sg2843
I2840
sg55
I52
sg3182
I3179
sg461
I458
sg628
I625
sg2714
I2711
sg288
I285
sg114
I111
sg2981
I2978
sg1122
I1119
sg1421
I1418
sg512
I509
sg950
I947
sg2854
I2851
sg279
I276
sg1772
I1769
sg2176
I2173
sg325
I322
sg3216
I3213
sg803
I800
sg247
I244
sg2789
I2786
sg785
I782
sg2857
I2854
sg778
I775
sg2858
I2855
sg1134
I1131
sg806
I803
sg3035
I3032
sg2172
I2169
sg304
I301
sg33
I30
sg484
I481
sg2198
I2195
sg222
I219
sg1118
I1115
sg1245
I1242
sg457
I454
sg2052
I2049
sg1148
I1145
sg2470
I2467
sg875
I872
sg3033
I3030
sg601
I598
sg2292
I2289
sg709
I706
sg1831
I1828
sg1995
I1992
sg2152
I2149
sg627
I624
sg2321
I2318
sg886
I883
sg2933
I2930
sg1457
I1454
sg1527
I1524
sg899
I896
sg347
I344
sg1055
I1052
sg905
I902
sg853
I850
sg935
I932
sg825
I822
sg3115
I3112
sg981
I978
sg603
I600
sg901
I898
sg1528
I1525
sg2089
I2086
sg2693
I2690
sg953
I950
sg588
I585
sg2407
I2404
sg1758
I1755
sg1819
I1816
sg1229
I1226
sg2300
I2297
sg605
I602
sg661
I658
sg1718
I1715
sg3129
I3126
sg815
I812
sg2097
I2094
sg1383
I1380
sg1671
I1668
sg1669
I1666
sg1504
I1501
sg1185
I1182
sg1711
I1708
sg1837
I1834
sg1231
I1228
sg270
I267
sg1854
I1851
sg2712
I2709
sg955
I952
sg3108
I3105
sg2625
I2622
sg1608
I1605
sg1250
I1247
sg400
I397
sg2434
I2431
sg1193
I1190
sg1635
I1632
sg3111
I3108
sg2274
I2271
sg2188
I2185
sg1926
I1923
sg2386
I2383
sg1416
I1413
sg424
I421
sg2596
I2593
sg409
I406
sg850
I847
sg2908
I2905
sg2657
I2654
sg878
I875
sg26
I23
sg2809
I2806
sg1049
I1046
sg2763
I2760
sg1753
I1750
sg1180
I1177
sg2906
I2903
sg2689
I2686
sg2963
I2960
sg2730
I2727
sg2416
I2413
sg1088
I1085
sg971
I968
sg318
I315
sg3080
I3077
sg2380
I2377
sg1344
I1341
sg2123
I2120
sg2608
I2605
sg3074
I3071
sg421
I418
sg2254
I2251
sg1497
I1494
sg2315
I2312
sg2618
I2615
sg1276
I1273
sg495
I492
sg2472
I2469
sg1372
I1369
sg437
I434
sg89
I86
sg688
I685
sg2162
I2159
sg1657
I1654
sg2484
I2481
sg2143
I2140
sg2795
I2792
sg1867
I1864
sg555
I552
sg2595
I2592
sg2738
I2735
sg2186
I2183
sg2479
I2476
sg1813
I1810
sg1086
I1083
sg2267
I2264
sg716
I713
sg2892
I2889
sg2856
I2853
sg1850
I1847
sg1640
I1637
sg2119
I2116
sg1327
I1324
sg1952
I1949
sg2372
I2369
sg204
I201
sg1814
I1811
sg1164
I1161
sg3187
I3184
sg1264
I1261
sg3048
I3045
sg2784
I2781
sg504
I501
sg3063
I3060
sg923
I920
sg991
I988
sg1875
I1872
sg1013
I1010
sg1097
I1094
sg442
I439
sg3151
I3148
sg972
I969
sg3020
I3017
sg862
I859
sg1930
I1927
sg2007
I2004
sg182
I179
sg2944
I2941
sg2129
I2126
sg1976
I1973
sg1178
I1175
sg1674
I1671
sg1046
I1043
sg514
I511
sg2352
I2349
sg2573
I2570
sg2691
I2688
sg1568
I1565
sg2647
I2644
sg2598
I2595
sg2360
I2357
sg489
I486
sg3126
I3123
sg74
I71
sg3046
I3043
sg1139
I1136
sg3005
I3002
sg243
I240
sg1168
I1165
sg3189
I3186
sg1489
I1486
sg28
I25
sg683
I680
sg2781
I2778
sg913
I910
sg743
I740
sg2788
I2785
sg520
I517
sg249
I246
sg2659
I2656
sg2306
I2303
sg630
I627
sg516
I513
sg3205
I3202
sg669
I666
sg11
I8
sg1485
I1482
sg1843
I1840
sg2776
I2773
sg727
I724
sg2448
I2445
sg2883
I2880
sg868
I865
sg3055
I3052
sg2459
I2456
sg1959
I1956
sg1894
I1891
sg3220
I3217
sg3128
I3125
sg2592
I2589
sg352
I349
sg814
I811
sg570
I567
sg1774
I1771
sg2755
I2752
sg898
I895
sg2768
I2765
sg1462
I1459
sg964
I961
sg531
I528
sg2822
I2819
sg1633
I1630
sg515
I512
sg3118
I3115
sg2645
I2642
sg193
I190
sg2725
I2722
sg3079
I3076
sg2770
I2767
sg2399
I2396
sg2612
I2609
sg3090
I3087
sg1324
I1321
sg3067
I3064
sg177
I174
sg2632
I2629
sg319
I316
sg147
I144
sg1821
I1818
sg1652
I1649
sg801
I798
sg2597
I2594
sg1026
I1023
sg1734
I1731
sg458
I455
sg990
I987
sg2375
I2372
sg1511
I1508
sg768
I765
sg1520
I1517
sg2345
I2342
sg1325
I1322
sg282
I279
sg855
I852
sg2251
I2248
sg432
I429
sg3049
I3046
sg845
I842
sg2041
I2038
sg1430
I1427
sg2153
I2150
sg1676
I1673
sg2749
I2746
sg1689
I1686
sg2837
I2834
sg1956
I1953
sg783
I780
sg643
I640
sg1744
I1741
sg985
I982
sg2421
I2418
sg1360
I1357
sg3036
I3033
sg472
I469
sg2385
I2382
sg782
I779
sg2289
I2286
sg2260
I2257
sg827
I824
sg1352
I1349
sg1083
I1080
sg1131
I1128
sg817
I814
sg3122
I3119
sg2792
I2789
sg3194
I3191
sg3012
I3009
sg1061
I1058
sg1612
I1609
sg2851
I2848
sg2058
I2055
sg2387
I2384
sg1089
I1086
sg2347
I2344
sg1653
I1650
sg3174
I3171
sg690
I687
sg1364
I1361
sg1373
I1370
sg1816
I1813
sg2531
I2528
sg2762
I2759
sg2668
I2665
sg386
I383
sg2802
I2799
sg2669
I2666
sg1933
I1930
sg1637
I1634
sg2238
I2235
sg1567
I1564
sg600
I597
sg1561
I1558
sg426
I423
sg1300
I1297
sg1292
I1289
sg1709
I1706
sg2731
I2728
sg1100
I1097
sg1994
I1991
sg1763
I1760
sg2086
I2083
sg331
I328
sg1572
I1569
sg2813
I2810
sg2979
I2976
sg1620
I1617
sg2703
I2700
sg2236
I2233
sg330
I327
sg2556
I2553
sg1827
I1824
sg154
I151
sg1257
I1254
sg1928
I1925
sg99
I96
sg1971
I1968
sg1170
I1167
sg211
I208
sg76
I73
sg2552
I2549
sg373
I370
sg1398
I1395
sg1551
I1548
sg1605
I1602
sg1636
I1633
sg2476
I2473
sg2985
I2982
sg2877
I2874
sg1792
I1789
sg569
I566
sg941
I938
sg2797
I2794
sg2024
I2021
sg1241
I1238
sg1395
I1392
sg3159
I3156
sg1870
I1867
sg997
I994
sg551
I548
sg2383
I2380
sg81
I78
sg283
I280
sg1937
I1934
sg816
I813
sg1356
I1353
sg493
I490
sg1582
I1579
sg1727
I1724
sg2836
I2833
sg1006
I1003
sg240
I237
sg2990
I2987
sg2515
I2512
sg2257
I2254
sg1941
I1938
sg1448
I1445
sg2358
I2355
sg1665
I1662
sg205
I202
sg1284
I1281
sg2359
I2356
sg2775
I2772
sg967
I964
sg2464
I2461
sg3163
I3160
sg917
I914
sg2704
I2701
sg567
I564
sg497
I494
sg1235
I1232
sg3100
I3097
sg1254
I1251
sg156
I153
sg576
I573
sg1683
I1680
sg1702
I1699
sg165
I162
sg2364
I2361
sg208
I205
sg473
I470
sg1705
I1702
sg2344
I2341
sg1873
I1870
sg2354
I2351
sg2794
I2791
sg153
I150
sg631
I628
sg2557
I2554
sg2764
I2761
sg1770
I1767
sg2987
I2984
sg2062
I2059
sg525
I522
sg2215
I2212
sg375
I372
sg697
I694
sg1204
I1201
sg1047
I1044
sg1387
I1384
sg2443
I2440
sg2445
I2442
sg227
I224
sg1299
I1296
sg381
I378
sg2414
I2411
sg1600
I1597
sg1339
I1336
sg2954
I2951
sg2278
I2275
sg20
I17
sg2787
I2784
sg2774
I2771
sg1018
I1015
sg2940
I2937
sg2514
I2511
sg1533
I1530
sg2885
I2882
sg2680
I2677
sg203
I200
sg2210
I2207
sg2158
I2155
sg2529
I2526
sg1487
I1484
sg1513
I1510
sg3124
I3121
sg2880
I2877
sg2025
I2022
sg1403
I1400
sg2422
I2419
sg761
I758
sg3226
I3223
sg2871
I2868
sg367
I364
sg1914
I1911
sg2821
I2818
sg1426
I1423
sg915
I912
sg1835
I1832
sg51
I48
sg1384
I1381
sg1407
I1404
sg2449
I2446
sg1252
I1249
sg2197
I2194
sg1790
I1787
sg2991
I2988
sg891
I888
sg3019
I3016
sg1503
I1500
sg922
I919
sg2918
I2915
sg3070
I3067
sg579
I576
sg2258
I2255
sg2706
I2703
sg2424
I2421
sg2242
I2239
sg2682
I2679
sg2495
I2492
sg2135
I2132
sg1244
I1241
sg1211
I1208
sg1699
I1696
sg748
I745
sg1474
I1471
sg2830
I2827
sg1614
I1611
sg1238
I1235
sg1341
I1338
sg450
I447
sg1538
I1535
sg733
I730
sg2962
I2959
sg2547
I2544
sg27
I24
sg2805
I2802
sg1279
I1276
sg2008
I2005
sg3076
I3073
sg1496
I1493
sg179
I176
sg2413
I2410
sg2226
I2223
sg3161
I3158
sg1698
I1695
sg232
I229
sg2091
I2088
sg357
I354
sg1285
I1282
sg936
I933
sg1615
I1612
sg371
I368
sg2864
I2861
sg1981
I1978
sg2888
I2885
sg355
I352
sg675
I672
sg2973
I2970
sg3050
I3047
sg1860
I1857
sg2049
I2046
sg777
I774
sg1410
I1407
sg2256
I2253
sg255
I252
sg1519
I1516
sg363
I360
sg1077
I1074
sg1517
I1514
sg1201
I1198
sg2318
I2315
sg766
I763
sg1920
I1917
sg1239
I1236
sg2946
I2943
sg2601
I2598
sg2104
I2101
sg3066
I3063
sg787
I784
sg1922
I1919
sg1795
I1792
sg2203
I2200
sg773
I770
sg2870
I2867
sg1053
I1050
sg1951
I1948
sg146
I143
sg1832
I1829
sg1166
I1163
sg3199
I3196
sg2330
I2327
sg2577
I2574
sg327
I324
sg665
I662
sg1949
I1946
sg134
I131
sg1862
I1859
sg145
I142
sg2814
I2811
sg2151
I2148
sg1598
I1595
sg1853
I1850
sg3133
I3130
sg2497
I2494
sg2401
I2398
sg168
I165
sg2616
I2613
sg873
I870
sg1896
I1893
sg591
I588
sg448
I445
sg3169
I3166
sg2003
I2000
sg2935
I2932
sg1146
I1143
sg2048
I2045
sg3054
I3051
sg769
I766
sg1195
I1192
sg1962
I1959
sg3162
I3159
sg2447
I2444
sg1909
I1906
sg2879
I2876
sg2517
I2514
sg103
I100
sg1459
I1456
sg2575
I2572
sg3241
I3238
sg2014
I2011
sg2109
I2106
sg1576
I1573
sg434
I431
sg2355
I2352
sg158
I155
sg1773
I1770
sg2456
I2453
sg2139
I2136
sg924
I921
sg2477
I2474
sg1261
I1258
sg1623
I1620
sg2388
I2385
sg1506
I1503
sg2653
I2650
sg1052
I1049
sg2607
I2604
sg3233
I3230
sg2587
I2584
sg2506
I2503
sg1663
I1660
sg1123
I1120
sg1791
I1788
sg756
I753
sg2803
I2800
sg1199
I1196
sg2397
I2394
sg2827
I2824
sg2262
I2259
sg1247
I1244
sg310
I307
sg1823
I1820
sg3073
I3070
sg584
I581
sg2729
I2726
sg2938
I2935
sg296
I293
sg2282
I2279
sg3110
I3107
sg2687
I2684
sg95
I92
sg739
I736
sg2068
I2065
sg1443
I1440
sg1072
I1069
sg823
I820
sg1700
I1697
sg3015
I3012
sg1946
I1943
sg791
I788
sg2977
I2974
sg1028
I1025
sg2740
I2737
sg505
I502
sg263
I260
sg2035
I2032
sg1378
I1375
sg1887
I1884
sg1864
I1861
sg1797
I1794
sg1162
I1159
sg2013
I2010
sg1889
I1886
sg1762
I1759
sg671
I668
sg686
I683
sg963
I960
sg2405
I2402
sg97
I94
sg694
I691
sg1096
I1093
sg2560
I2557
sg3083
I3080
sg2537
I2534
sg315
I312
sg2457
I2454
sg219
I216
sg2630
I2627
sg2743
I2740
sg1960
I1957
sg2663
I2660
sg1649
I1646
sg1366
I1363
sg453
I450
sg672
I669
sg178
I175
sg278
I275
sg786
I783
sg1318
I1315
sg2308
I2305
sg1996
I1993
sg1931
I1928
sg419
I416
sg640
I637
sg545
I542
sg580
I577
sg117
I114
sg1176
I1173
sg1638
I1635
sg1737
I1734
sg2460
I2457
sg2500
I2497
sg2425
I2422
sg1068
I1065
sg511
I508
sg1101
I1098
sg197
I194
sg1266
I1263
sg2174
I2171
sg561
I558
sg2890
I2887
sg708
I705
sg808
I805
sg1067
I1064
sg1895
I1892
sg194
I191
sg1064
I1061
sg3192
I3189
sg1997
I1994
sg1433
I1430
sg3218
I3215
sg2205
I2202
sg775
I772
sg2028
I2025
sg407
I404
sg1179
I1176
sg353
I350
sg1647
I1644
sg1882
I1879
sg40
I37
sg2196
I2193
sg1786
I1783
sg1586
I1583
sg1473
I1470
sg949
I946
sg695
I692
sg246
I243
sg1845
I1842
sg1132
I1129
sg1171
I1168
sg1983
I1980
sg2147
I2144
sg1108
I1105
sg1540
I1537
sg3138
I3135
sg2646
I2643
sg2111
I2108
sg228
I225
sg2860
I2857
sg1825
I1822
sg2868
I2865
sg1639
I1636
sg965
I962
sg2893
I2890
sg506
I503
sg2957
I2954
sg2604
I2601
sg2020
I2017
sg841
I838
sg1289
I1286
sg3144
I3141
sg3132
I3129
sg1550
I1547
sg1357
I1354
sg2626
I2623
sg451
I448
sg659
I656
sg2709
I2706
sg918
I915
sg2180
I2177
sg115
I112
sg1367
I1364
sg740
I737
sg857
I854
sg2378
I2375
sg2454
I2451
sg212
I209
sg3240
I3237
sg2351
I2348
sg3075
I3072
sg2002
I1999
sg280
I277
sg2541
I2538
sg3198
I3195
sg3178
I3175
sg3224
I3221
sg744
I741
sg3113
I3110
sg1359
I1356
sg1752
I1749
sg1607
I1604
sg703
I700
sg252
I249
sg2288
I2285
sg1468
I1465
sg2166
I2163
sg503
I500
sg1236
I1233
sg3229
I3226
sg1187
I1184
sg1003
I1000
sg3228
I3225
sg2313
I2310
sg2913
I2910
sg2878
I2875
sg1434
I1431
sg3064
I3061
sg2165
I2162
sg2231
I2228
sg1768
I1765
sg1552
I1549
sg1812
I1809
sg2293
I2290
sg2451
I2448
sg874
I871
sg3242
I3239
sg1906
I1903
sg286
I283
sg2099
I2096
sg3206
I3203
sg1400
I1397
sg2261
I2258
sg2079
I2076
sg527
I524
sg1691
I1688
sg1074
I1071
sg574
I571
sg1938
I1935
sg1756
I1753
sg1093
I1090
sg2169
I2166
sg1268
I1265
sg1631
I1628
sg951
I948
sg1153
I1150
sg2564
I2561
sg563
I560
sg502
I499
sg274
I271
sg1381
I1378
sg2855
I2852
sg1174
I1171
sg3004
I3001
sg1111
I1108
sg877
I874
sg1515
I1512
sg1009
I1006
sg3117
I3114
sg2108
I2105
sg2076
I2073
sg3121
I3118
sg610
I607
sg118
I115
sg2185
I2182
sg3156
I3153
sg1788
I1785
sg2724
I2721
sg2756
I2753
sg1307
I1304
sg2994
I2991
sg301
I298
sg2636
I2633
sg65
I62
sg1616
I1613
sg559
I556
sg2285
I2282
sg992
I989
sg685
I682
sg3047
I3044
sg2605
I2602
sg2213
I2210
sg2518
I2515
sg1099
I1096
sg2576
I2573
sg185
I182
sg869
I866
sg326
I323
sg721
I718
sg3059
I3056
sg2945
I2942
sg3125
I3122
sg2465
I2462
sg1514
I1511
sg265
I262
sg1243
I1240
sg1536
I1533
sg1090
I1087
sg2505
I2502
sg2947
I2944
sg2723
I2720
sg1701
I1698
sg1296
I1293
sg344
I341
sg2032
I2029
sg1435
I1432
sg1634
I1631
sg2240
I2237
sg2992
I2989
sg2269
I2266
sg368
I365
sg1173
I1170
sg2314
I2311
sg1219
I1216
sg2134
I2131
sg2323
I2320
sg1455
I1452
sg1904
I1901
sg2015
I2012
sg509
I506
sg2904
I2901
sg670
I667
sg2655
I2652
sg125
I122
sg1563
I1560
sg2942
I2939
sg1456
I1453
sg830
I827
sg1573
I1570
sg3088
I3085
sg2790
I2787
sg909
I906
sg1005
I1002
sg41
I38
sg718
I715
sg1419
I1416
sg482
I479
sg1943
I1940
sg3195
I3192
sg1754
I1751
sg2960
I2957
sg2125
I2122
sg620
I617
sg427
I424
sg1583
I1580
sg396
I393
sg707
I704
sg2376
I2373
sg2937
I2934
sg1029
I1026
sg1919
I1916
sg2532
I2529
sg2544
I2541
sg107
I104
sg1778
I1775
sg3085
I3082
sg155
I152
sg3068
I3065
sg720
I717
sg1112
I1109
sg741
I738
sg1393
I1390
sg914
I911
sg2538
I2535
sg543
I540
sg3043
I3040
sg625
I622
sg920
I917
sg2786
I2783
sg1625
I1622
sg2389
I2386
sg3105
I3102
sg2440
I2437
sg1390
I1387
sg138
I135
sg1811
I1808
sg2572
I2569
sg3039
I3036
sg2673
I2670
sg1555
I1552
sg2156
I2153
sg1764
I1761
sg1755
I1752
sg1559
I1556
sg962
I959
sg1658
I1655
sg1287
I1284
sg201
I198
sg418
I415
sg2593
I2590
sg637
I634
sg3153
I3150
sg2341
I2338
sg575
I572
sg1721
I1718
sg2382
I2379
sg2431
I2428
sg2371
I2368
sg3243
I3240
sg3160
I3157
sg1818
I1815
sg1165
I1162
sg1542
I1539
sg1501
I1498
sg982
I979
sg1128
I1125
sg2863
I2860
sg356
I353
sg676
I673
sg3150
I3147
sg557
I554
sg2050
I2047
sg2542
I2539
sg1030
I1027
sg269
I266
sg73
I70
sg678
I675
sg1893
I1890
sg1275
I1272
sg1021
I1018
sg1297
I1294
sg15
I12
sg993
I990
sg713
I710
sg2075
I2072
sg85
I82
sg558
I555
sg1731
I1728
sg1054
I1051
sg1145
I1142
sg2558
I2555
sg2828
I2825
sg430
I427
sg34
I31
sg2785
I2782
sg1518
I1515
sg439
I436
sg3136
I3133
sg1157
I1154
sg2182
I2179
sg2737
I2734
sg519
I516
sg2060
I2057
sg2322
I2319
sg3052
I3049
sg1345
I1342
sg366
I363
sg812
I809
sg1422
I1419
sg2684
I2681
sg871
I868
sg2615
I2612
sg2214
I2211
sg1539
I1536
sg1748
I1745
sg2051
I2048
sg663
I660
sg2193
I2190
sg2952
I2949
sg1516
I1513
sg1442
I1439
sg947
I944
sg1991
I1988
sg1512
I1509
sg1197
I1194
sg590
I587
sg417
I414
sg1809
I1806
sg1759
I1756
sg1838
I1835
sg2462
I2459
sg2408
I2405
sg2943
I2940
sg2848
I2845
sg2280
I2277
sg245
I242
sg101
I98
sg2633
I2630
sg1794
I1791
sg2319
I2316
sg3167
I3164
sg1970
I1967
sg2624
I2621
sg3131
I3128
sg2588
I2585
sg1351
I1348
sg1094
I1091
sg2118
I2115
sg170
I167
sg2179
I2176
sg268
I265
sg2718
I2715
sg2835
I2832
sg2619
I2616
sg2335
I2332
sg3081
I3078
sg183
I180
sg2029
I2026
sg307
I304
sg2986
I2983
sg969
I966
sg2423
I2420
sg1703
I1700
sg293
I290
sg656
I653
sg848
I845
sg3210
I3207
sg597
I594
sg2745
I2742
sg2887
I2884
sg3149
I3146
sg3099
I3096
sg1898
I1895
sg2584
I2581
sg2936
I2933
sg1212
I1209
sg1230
I1227
sg332
I329
sg1484
I1481
sg1007
I1004
sg1942
I1939
sg599
I596
sg2747
I2744
sg2055
I2052
sg667
I664
sg2384
I2381
sg1903
I1900
sg2679
I2676
sg2298
I2295
sg3013
I3010
sg2098
I2095
sg1154
I1151
sg1500
I1497
sg2311
I2308
sg1532
I1529
sg2526
I2523
sg1191
I1188
sg2599
I2596
sg3022
I3019
sg2889
I2886
sg3089
I3086
sg1242
I1239
sg1985
I1982
sg234
I231
sg21
I18
sg1766
I1763
sg1023
I1020
sg826
I823
sg1022
I1019
sg1466
I1463
sg2237
I2234
sg1237
I1234
sg2066
I2063
sg2340
I2337
sg2649
I2646
sg323
I320
sg704
I701
sg5
I2
sg3098
I3095
sg44
I41
sg2178
I2175
sg306
I303
sg1686
I1683
sg639
I636
sg2126
I2123
sg2488
I2485
sg2155
I2152
sg271
I268
sg1531
I1528
sg765
I762
sg2753
I2750
sg1537
I1534
sg1396
I1393
sg171
I168
sg2675
I2672
sg2707
I2704
sg946
I943
sg813
I810
sg532
I529
sg2244
I2241
sg2503
I2500
sg1722
I1719
sg973
I970
sg1566
I1563
sg2093
I2090
sg1667
I1664
sg910
I907
sg66
I63
sg2095
I2092
sg2996
I2993
sg2235
I2232
sg1655
I1652
sg2211
I2208
sg1076
I1073
sg16
I13
sg1447
I1444
sg52
I49
sg2221
I2218
sg91
I88
sg1483
I1480
sg1579
I1576
sg328
I325
sg415
I412
sg1508
I1505
sg1851
I1848
sg980
I977
sg2357
I2354
sg151
I148
sg2489
I2486
sg1980
I1977
sg1302
I1299
sg1486
I1483
sg2811
I2808
sg843
I840
sg105
I102
sg2496
I2493
sg1939
I1936
sg2333
I2330
sg2018
I2015
sg1130
I1127
sg1599
I1596
sg989
I986
sg1659
I1656
sg2525
I2522
sg2876
I2873
sg2400
I2397
sg190
I187
sg284
I281
sg90
I87
sg939
I936
sg2279
I2276
sg1272
I1269
sg3186
I3183
sg595
I592
sg2751
I2748
sg380
I377
sg58
I55
sg2096
I2093
sg1642
I1639
sg2932
I2929
sg32
I29
sg2170
I2167
sg2656
I2653
sg2053
I2050
sg1458
I1455
sg2553
I2550
sg577
I574
sg1326
I1323
sg1955
I1952
sg2523
I2520
sg2181
I2178
sg2565
I2562
sg811
I808
sg1626
I1623
sg1124
I1121
sg1228
I1225
sg3006
I3003
sg1775
I1772
sg1104
I1101
sg3001
I2998
sg2223
I2220
sg3093
I3090
sg1829
I1826
sg1730
I1727
sg2949
I2946
sg119
I116
sg763
I760
sg2631
I2628
sg1863
I1860
sg728
I725
sg290
I287
sg2853
I2850
sg3214
I3211
sg2150
I2147
sg2628
I2625
sg2921
I2918
sg1984
I1981
sg1062
I1059
sg1002
I999
sg706
I703
sg952
I949
sg2334
I2331
sg1113
I1110
sg1417
I1414
sg1781
I1778
sg1855
I1852
sg2570
I2567
sg1524
I1521
sg937
I934
sg2271
I2268
sg1591
I1588
sg2873
I2870
sg1622
I1619
sg218
I215
sg3165
I3162
sg1453
I1450
sg2128
I2125
sg1611
I1608
sg2551
I2548
sg405
I402
sg1098
I1095
sg1861
I1858
sg1379
I1376
sg1133
I1130
sg1425
I1422
sg3032
I3029
sg2305
I2302
sg2349
I2346
sg2930
I2927
sg1544
I1541
sg175
I172
sg17
I14
sg1549
I1546
sg1913
I1910
sg925
I922
sg2953
I2950
sg2993
I2990
sg1058
I1055
sg1521
I1518
sg2381
I2378
sg372
I369
sg3208
I3205
sg3114
I3111
sg1450
I1447
sg1109
I1106
sg1858
I1855
sg2772
I2769
sg384
I381
sg2699
I2696
sg2905
I2902
sg1335
I1332
sg1293
I1290
sg3127
I3124
sg334
I331
sg1541
I1538
sg2417
I2414
sg3016
I3013
sg3172
I3169
sg2961
I2958
sg3197
I3194
sg1119
I1116
sg3025
I3022
sg1102
I1099
sg2666
I2663
sg1256
I1253
sg37
I34
sg2715
I2712
sg1415
I1412
sg2832
I2829
sg2309
I2306
sg2661
I2658
sg1420
I1417
sg840
I837
sg2338
I2335
sg98
I95
sg2080
I2077
sg1876
I1873
sg887
I884
sg3135
I3132
sg496
I493
sg1271
I1268
sg3027
I3024
sg1957
I1954
sg2744
I2741
sg191
I188
sg680
I677
sg61
I58
sg612
I609
ssVname
p3247
Veng
p3248
sVword2count
p3249
(dp3250
g2562
I1
sg2978
I1
sg2874
I1
sg2177
I1
sg2325
I3
sg1950
I12
sg2030
I1
sg412
I14
sg487
I5
sg1918
I2
sg609
I28
sg262
I4
sg907
I119
sg2102
I3
sg2312
I1
sg313
I7
sg1495
I2
sg2475
I1
sg2297
I1
sg2760
I1
sg1295
I13
sg986
I10
sg79
I202
sg2159
I1
sg2130
I1
sg500
I2
sg1019
I3
sg3137
I1
sg1588
I16
sg2195
I1
sg770
I4
sg2228
I2
sg1115
I3
sg2394
I1
sg1040
I25
sg2831
I1
sg110
I3
sg2536
I1
sg2757
I1
sg3148
I1
sg2276
I1
sg802
I2
sg1312
I2
sg2501
I3
sg1849
I2
sg1628
I5
sg1953
I1
sg1543
I6
sg2881
I1
sg82
I166
sg1921
I1
sg2571
I1
sg401
I25
sg3145
I1
sg3041
I2
sg1207
I2
sg958
I2
sg2328
I1
sg149
I9
sg755
I5
sg2078
I1
sg1036
I10
sg333
I7
sg2227
I2
sg281
I4
sg2850
I2
sg1695
I1
sg1670
I1
sg2540
I3
sg469
I14
sg54
I62
sg3042
I1
sg2799
I1
sg1587
I6
sg1735
I4
sg2820
I2
sg108
I10
sg2163
I2
sg861
I4
sg148
I3
sg1273
I2
sg932
I7
sg49
I282
sg1205
I4
sg1413
I1
sg2290
I2
sg481
I3
sg2696
I1
sg491
I2
sg1451
I2
sg1188
I7
sg1085
I13
sg1965
I1
sg1189
I9
sg1469
I1
sg3209
I1
sg2845
I1
sg413
I9
sg1585
I3
sg2580
I2
sg1313
I10
sg1336
I1
sg2533
I4
sg2590
I1
sg1590
I3
sg2574
I10
sg2410
I6
sg1467
I3
sg1035
I5
sg809
I2
sg930
I13
sg1856
I16
sg1680
I1
sg2239
I5
sg2191
I2
sg1169
I16
sg23
I3
sg2545
I3
sg410
I4
sg382
I10
sg1556
I28
sg679
I6
sg1225
I1
sg607
I4
sg184
I24
sg2758
I2
sg1042
I22
sg1196
I6
sg2741
I2
sg294
I3
sg2057
I5
sg2736
I1
sg2038
I4
sg2806
I1
sg391
I251
sg828
I2
sg1024
I13
sg300
I8
sg1619
I1
sg2320
I1
sg196
I70
sg349
I1
sg2277
I3
sg302
I5
sg2611
I2
sg167
I416
sg1262
I4
sg3207
I1
sg774
I1
sg133
I3
sg1883
I2
sg1141
I2
sg2920
I2
sg1836
I14
sg1376
I46
sg1666
I3
sg2780
I1
sg2928
I6
sg2224
I3
sg3023
I2
sg1444
I3
sg1427
I15
sg2688
I10
sg1596
I12
sg266
I15
sg2610
I1
sg784
I1
sg2145
I3
sg1321
I13
sg86
I10
sg1280
I1
sg2534
I3
sg2554
I1
sg1371
I11
sg1687
I5
sg345
I1
sg2061
I1
sg1215
I6
sg623
I9
sg1692
I1
sg395
I2
sg390
I11
sg2390
I2
sg186
I49
sg2522
I2
sg2117
I3
sg2846
I1
sg2199
I1
sg3179
I1
sg651
I2
sg3234
I1
sg974
I1
sg1310
I4
sg2012
I1
sg927
I2
sg2379
I2
sg476
I4
sg1034
I1
sg1490
I7
sg1363
I2
sg1107
I1
sg1319
I10
sg447
I38
sg470
I22
sg539
I3
sg1751
I5
sg968
I6
sg2527
I2
sg1343
I8
sg10
I10
sg1560
I3
sg2435
I1
sg277
I9
sg1255
I16
sg800
I2
sg3201
I1
sg2995
I1
sg2142
I1
sg872
I13
sg879
I28
sg538
I3
sg2884
I1
sg3171
I2
sg611
I3
sg36
I32
sg1769
I7
sg2722
I1
sg259
I632
sg2369
I1
sg1043
I2
sg882
I6
sg1008
I3
sg2463
I1
sg859
I1
sg2487
I1
sg2337
I2
sg2698
I8
sg604
I2
sg2398
I13
sg291
I14
sg2559
I6
sg732
I2
sg836
I13
sg2087
I2
sg215
I20
sg2975
I2
sg2124
I1
sg3018
I1
sg1694
I7
sg2429
I5
sg1309
I1
sg2671
I1
sg3087
I1
sg2674
I1
sg715
I3
sg3109
I3
sg1436
I1
sg113
I2
sg2011
I5
sg2113
I2
sg1682
I10
sg206
I14
sg2127
I1
sg229
I9
sg3031
I1
sg187
I4
sg979
I5
sg1480
I2
sg88
I3743
sg2640
I9
sg2563
I1
sg2651
I3
sg837
I14
sg1317
I2
sg1294
I8
sg3058
I1
sg876
I4
sg1392
I1
sg29
I42
sg760
I2
sg3177
I1
sg1978
I5
sg2420
I1
sg3091
I1
sg1927
I7
sg1190
I1
sg820
I1
sg3230
I1
sg3176
I1
sg2613
I1
sg2005
I1
sg3056
I1
sg404
I2
sg2606
I1
sg2190
I13
sg2395
I1
sg3061
I1
sg1998
I20
sg960
I3
sg1482
I2
sg130
I7
sg719
I5
sg3183
I1
sg885
I29
sg1888
I10
sg1805
I1
sg1488
I7
sg1593
I9
sg423
I82
sg78
I2
sg1142
I2
sg2301
I1
sg2690
I1
sg2059
I7
sg1404
I2
sg2157
I2
sg1900
I1
sg833
I1
sg3106
I1
sg1741
I3
sg737
I2
sg1125
I10
sg188
I235
sg445
I171
sg1553
I5
sg592
I3
sg1210
I11
sg1227
I1
sg583
I1
sg3164
I1
sg903
I2
sg2473
I2
sg1314
I5
sg1799
I3
sg1246
I1
sg144
I1
sg526
I5
sg1041
I2
sg2206
I2
sg1899
I12
sg287
I9
sg2896
I7
sg1348
I17
sg1160
I13
sg2452
I4
sg2478
I2
sg376
I10
sg534
I105
sg624
I2
sg2160
I1
sg722
I41
sg1668
I1
sg1750
I1
sg2897
I1
sg403
I4
sg452
I12
sg2184
I2
sg360
I30
sg2852
I3
sg244
I25
sg1929
I2
sg1738
I11
sg1194
I10
sg1617
I4
sg1565
I19
sg2964
I1
sg342
I4
sg2287
I4
sg649
I4
sg1399
I1
sg508
I2
sg622
I1
sg3000
I1
sg2339
I5
sg2746
I1
sg2247
I2
sg343
I3
sg1446
I1
sg2900
I1
sg1745
I4
sg700
I8
sg1610
I14
sg3213
I2
sg2255
I1
sg1526
I6
sg764
I15
sg2220
I19
sg2201
I4
sg847
I5
sg6
I3622
sg257
I2
sg793
I2
sg2958
I1
sg2862
I3
sg2100
I6
sg2591
I1
sg478
I1
sg2585
I1
sg2490
I1
sg1872
I9
sg70
I7
sg471
I8
sg556
I2
sg1405
I1
sg3152
I1
sg1606
I1
sg856
I1
sg1137
I4
sg849
I13
sg1158
I1
sg420
I2
sg1990
I1
sg3072
I1
sg22
I138
sg2222
I1
sg2569
I2
sg494
I3
sg408
I10
sg1491
I2
sg248
I6
sg48
I30
sg3123
I1
sg2773
I1
sg1330
I29
sg173
I119
sg1891
I1
sg1677
I3
sg696
I1
sg2754
I1
sg866
I22
sg2927
I1
sg1988
I2
sg2834
I1
sg2296
I1
sg2898
I2
sg852
I1
sg157
I1
sg1304
I4
sg1144
I5
sg1824
I1
sg2250
I1
sg3212
I2
sg2508
I2
sg1742
I2
sg1251
I16
sg152
I39
sg2200
I4
sg292
I4
sg1143
I7
sg2600
I1
sg2396
I1
sg1306
I6
sg3139
I1
sg2409
I2
sg2614
I1
sg393
I5
sg2324
I1
sg2639
I10
sg3107
I2
sg2063
I2
sg1060
I6
sg1353
I1
sg642
I36
sg2660
I7
sg724
I3
sg926
I22
sg104
I18
sg2983
I1
sg831
I14
sg1452
I1
sg2665
I2
sg3157
I1
sg1690
I4
sg1776
I3
sg2694
I2
sg87
I1197
sg1337
I2
sg2034
I5
sg1779
I5
sg1394
I1
sg43
I13
sg977
I2
sg340
I21
sg2219
I3
sg2968
I1
sg1492
I2
sg881
I3
sg2494
I1
sg995
I7
sg1346
I3
sg2602
I2
sg56
I2
sg1016
I13
sg1696
I1
sg2450
I8
sg13
I12
sg462
I11
sg2023
I1
sg564
I11
sg2507
I2
sg3040
I1
sg2069
I3
sg1595
I2
sg3103
I1
sg1890
I4
sg3104
I3
sg2083
I6
sg530
I1
sg3238
I1
sg83
I15
sg2044
I2
sg3215
I2
sg729
I3
sg3180
I1
sg2583
I1
sg2187
I2
sg2791
I4
sg1418
I3
sg127
I8
sg214
I1
sg1726
I9
sg1037
I35
sg2955
I1
sg1684
I2
sg3002
I1
sg2406
I1
sg1361
I17
sg1461
I28
sg7
I12868
sg435
I13
sg1105
I7
sg933
I1
sg3170
I1
sg1167
I4
sg1948
I6
sg804
I8
sg984
I1
sg2281
I5
sg2263
I1
sg460
I1
sg1784
I17
sg2040
I6
sg546
I4
sg1820
I1
sg1315
I13
sg3097
I1
sg3003
I1
sg3024
I1
sg738
I38
sg1963
I8
sg3051
I1
sg2485
I2
sg2796
I1
sg1589
I8
sg1084
I1
sg42
I8
sg1708
I1
sg2481
I1
sg781
I9
sg3225
I1
sg1597
I2
sg2272
I5
sg2120
I1
sg2368
I14
sg3057
I1
sg1828
I1
sg2164
I2
sg3120
I1
sg45
I1336
sg174
I297
sg3101
I1
sg1523
I9
sg180
I7
sg2825
I1
sg124
I564
sg2939
I1
sg2427
I1
sg2031
I3
sg2361
I1
sg1603
I52
sg832
I4
sg2264
I1
sg2767
I1
sg1916
I14
sg687
I35
sg1604
I2
sg1629
I1
sg629
I2
sg698
I1
sg1688
I23
sg2444
I2
sg2720
I3
sg2742
I3
sg895
I6
sg3069
I1
sg2353
I1
sg1844
I2
sg2105
I2
sg320
I4
sg2327
I2
sg216
I22
sg902
I2
sg3008
I1
sg2662
I1
sg1548
I2
sg824
I10
sg3010
I3
sg3204
I1
sg121
I3
sg928
I1
sg1334
I1
sg1715
I1
sg3217
I1
sg1494
I5
sg552
I2
sg1355
I21
sg339
I973
sg84
I18
sg1027
I1
sg1594
I1
sg455
I158
sg1767
I1
sg2138
I2
sg2752
I1
sg139
I31
sg517
I2
sg3143
I1
sg1386
I2
sg565
I1
sg92
I2
sg1866
I3
sg798
I4
sg668
I59
sg3071
I1
sg1208
I3
sg2915
I1
sg1202
I45
sg2869
I1
sg2106
I1
sg3119
I4
sg636
I2
sg1940
I1
sg314
I13
sg533
I5
sg944
I3
sg1331
I8
sg2982
I2
sg1110
I1
sg2161
I6
sg2967
I2
sg2766
I1
sg2925
I1
sg2331
I2
sg2259
I12
sg1802
I3
sg2901
I12
sg1842
I1
sg2146
I3
sg940
I1
sg2499
I3
sg1969
I2
sg2765
I1
sg2074
I4
sg1892
I1
sg1609
I1
sg2823
I1
sg159
I2
sg1681
I1
sg705
I27
sg446
I1
sg1693
I1
sg1578
I2
sg2692
I1
sg77
I159
sg46
I122
sg2976
I1
sg1839
I4
sg1278
I19
sg1234
I1
sg25
I7
sg256
I37
sg689
I36
sg2910
I1
sg1449
I1
sg3175
I1
sg1975
I1
sg2036
I1
sg2103
I1
sg2171
I1
sg839
I423
sg759
I8
sg258
I2
sg298
I8
sg1282
I1
sg1712
I30
sg2115
I14
sg389
I5
sg2948
I1
sg2550
I1
sg2001
I68
sg1365
I2
sg2426
I1
sg1575
I1
sg3053
I3
sg3227
I1
sg1787
I3
sg662
I1
sg1901
I1
sg1498
I12
sg129
I14
sg921
I2
sg136
I8
sg2502
I3
sg1648
I1
sg2436
I3
sg758
I6
sg1477
I16
sg2654
I1
sg2065
I13
sg2812
I1
sg3011
I1
sg1192
I2
sg1439
I3
sg2243
I4
sg1710
I5
sg1070
I3
sg1198
I5
sg3045
I1
sg1499
I20
sg797
I8
sg2519
I3
sg2101
I19
sg399
I16
sg943
I8
sg2283
I3
sg1209
I1
sg2412
I1
sg1874
I2
sg870
I22
sg2579
I5
sg2510
I1
sg1972
I1
sg2374
I1
sg1015
I21
sg2336
I1
sg1224
I10
sg80
I16
sg2377
I2
sg464
I34
sg1584
I18
sg53
I851
sg364
I5
sg261
I185
sg1263
I17
sg1685
I1
sg1885
I2
sg2432
I3
sg3237
I1
sg2620
I1
sg444
I11
sg2520
I2
sg1968
I5
sg542
I59
sg566
I9
sg1460
I9
sg2046
I11
sg2555
I1
sg2886
I2
sg1240
I4
sg369
I5
sg2524
I2
sg135
I4
sg2209
I2
sg2566
I1
sg501
I3
sg1632
I15
sg1992
I2
sg799
I2
sg1720
I3
sg1675
I1
sg377
I33
sg2726
I1
sg1445
I8
sg1661
I5
sg674
I16
sg1868
I3
sg2926
I1
sg2951
I1
sg3222
I1
sg1558
I9
sg392
I13
sg1411
I11
sg2800
I3
sg3009
I1
sg303
I5
sg67
I21
sg221
I100
sg810
I6
sg1886
I8
sg735
I1
sg585
I41
sg428
I10
sg2530
I2
sg1368
I4
sg772
I3
sg1936
I8
sg2356
I1
sg633
I10
sg1974
I1
sg654
I23
sg2265
I1
sg1126
I6
sg463
I3
sg2140
I1
sg1878
I4
sg1908
I1
sg321
I27
sg2307
I1
sg1944
I3
sg1200
I21
sg1424
I1
sg116
I1
sg1277
I2
sg807
I4
sg1472
I16
sg2748
I1
sg72
I3
sg1135
I3
sg854
I65
sg235
I25
sg2911
I3
sg2175
I4
sg975
I1
sg1063
I1
sg2114
I11
sg1121
I1
sg1986
I2
sg172
I10
sg2974
I2
sg1432
I9
sg1613
I2
sg1725
I5
sg553
I13
sg1226
I7
sg1534
I5
sg1106
I3
sg751
I14
sg2677
I3
sg2923
I2
sg2482
I7
sg2650
I2
sg2428
I3
sg3028
I1
sg846
I46
sg1117
I6
sg2483
I1
sg3095
I1
sg1947
I1
sg693
I11
sg893
I3
sg2136
I1
sg3146
I1
sg2471
I1
sg1535
I1
sg160
I6
sg1463
I1
sg2638
I1
sg2493
I1
sg94
I17
sg664
I2
sg673
I35
sg1645
I3
sg2546
I1
sg264
I8
sg2167
I2
sg1051
I4
sg1010
I23
sg619
I1
sg411
I42
sg2914
I1
sg362
I20
sg1000
I6
sg560
I25
sg860
I2
sg488
I29
sg1897
I8
sg2107
I4
sg677
I149
sg904
I1
sg1789
I1
sg2362
I1
sg2430
I2
sg1522
I2
sg2511
I1
sg226
I13
sg635
I2
sg2433
I3
sg3034
I1
sg2716
I1
sg2847
I1
sg3134
I2
sg1509
I3
sg1660
I3
sg2037
I1
sg2054
I1
sg479
I2
sg1249
I1
sg771
I5
sg883
I2
sg402
I3
sg106
I48
sg1912
I4
sg996
I9
sg2950
I1
sg1905
I1
sg2998
I1
sg59
I90
sg1736
I2
sg425
I82
sg1328
I1
sg100
I46
sg2194
I2
sg537
I22
sg143
I11
sg518
I5
sg213
I5
sg3014
I1
sg593
I10
sg189
I3
sg2778
I1
sg2467
I4
sg647
I4
sg2252
I5
sg3193
I1
sg378
I5
sg2652
I1
sg934
I7
sg1308
I6
sg233
I12
sg1152
I1
sg999
I5
sg2678
I1
sg682
I3
sg1771
I4
sg2783
I1
sg2393
I1
sg754
I2
sg1673
I1
sg253
I50
sg311
I1
sg2719
I1
sg260
I37
sg684
I23
sg2366
I4
sg2088
I4
sg725
I4
sg2363
I6
sg1186
I15
sg3102
I6
sg548
I3
sg2480
I7
sg2561
I2
sg1923
I3
sg1092
I3
sg541
I57
sg2779
I1
sg2090
I1
sg1017
I2
sg2872
I3
sg2739
I1
sg1223
I2
sg1267
I1
sg2043
I11
sg1815
I2
sg2702
I1
sg2216
I3
sg1437
I1
sg734
I7
sg394
I7
sg1303
I2
sg838
I2
sg829
I7
sg1840
I5
sg2929
I1
sg50
I861
sg1664
I5
sg586
I43
sg2513
I1
sg2970
I1
sg1826
I3
sg64
I39
sg2818
I3
sg1964
I9
sg1428
I2
sg2332
I1
sg486
I11
sg297
I25
sg295
I1
sg422
I2
sg1149
I4
sg350
I11
sg911
I10
sg1627
I2
sg1004
I1
sg272
I4
sg1120
I8
sg522
I1
sg2047
I1
sg3184
I4
sg1958
I2
sg1717
I7
sg123
I2
sg1220
I3
sg2644
I2
sg1080
I11
sg1982
I1
sg241
I22
sg3094
I1
sg1129
I1
sg308
I3
sg540
I4
sg884
I1
sg441
I8
sg2486
I1
sg2903
I2
sg223
I31
sg1479
I1
sg753
I53
sg1147
I5
sg2404
I3
sg57
I68
sg1707
I4
sg1570
I1
sg863
I16
sg2919
I2
sg3044
I2
sg1150
I1
sg1662
I2
sg1810
I6
sg867
I28
sg239
I161
sg39
I39
sg2275
I1
sg1389
I35
sg2045
I3
sg1915
I4
sg276
I19
sg2116
I7
sg2568
I8
sg2934
I1
sg2455
I1
sg3142
I1
sg1320
I3
sg880
I40
sg1757
I9
sg3236
I1
sg1782
I7
sg24
I28
sg606
I132
sg1747
I3
sg3200
I1
sg492
I4
sg1408
I9
sg1966
I20
sg736
I1
sg1650
I1
sg648
I5
sg1065
I4
sg1713
I5
sg1678
I1
sg289
I4
sg3021
I1
sg2810
I2
sg2082
I1
sg2733
I1
sg942
I1
sg3017
I1
sg128
I19
sg573
I6
sg608
I1
sg2521
I2
sg894
I9
sg1311
I2
sg251
I7
sg169
I1465
sg275
I184
sg2373
I3
sg2685
I4
sg2681
I1
sg2000
I12
sg835
I1
sg1340
I4
sg888
I4
sg2750
I1
sg2144
I3
sg1830
I3
sg467
I2
sg454
I3
sg550
I5
sg767
I9
sg1761
I9
sg2229
I2
sg818
I7
sg220
I72
sg181
I17
sg3065
I1
sg3007
I1
sg714
I2
sg529
I1
sg2697
I8
sg1852
I6
sg1033
I41
sg2110
I9
sg2017
I3
sg1305
I6
sg1654
I1
sg3235
I1
sg2841
I2
sg2291
I4
sg1406
I1
sg571
I2
sg1577
I5
sg1793
I4
sg2411
I2
sg621
I2
sg329
I8
sg2474
I1
sg3219
I2
sg202
I4
sg2907
I1
sg1056
I1
sg2735
I1
sg2567
I4
sg749
I40
sg238
I5
sg317
I1
sg1354
I5
sg1414
I4
sg2442
I2
sg2859
I1
sg140
I9
sg436
I4
sg379
I1
sg120
I13
sg1388
I14
sg711
I13
sg1672
I1
sg3037
I2
sg2039
I4
sg1798
I22
sg747
I4
sg69
I18
sg62
I6
sg900
I1
sg1571
I2
sg1291
I6
sg474
I2
sg2824
I4
sg406
I141
sg2418
I1
sg2392
I2
sg1723
I7
sg2019
I5
sg1547
I5
sg1298
I6
sg1546
I4
sg535
I22
sg1362
I51
sg2815
I1
sg710
I4
sg2867
I2
sg1050
I6
sg1032
I51
sg2509
I2
sg2141
I2
sg2439
I1
sg2085
I4
sg2270
I1
sg650
I2
sg2683
I2
sg1385
I6
sg242
I4
sg2006
I6
sg336
I16
sg1961
I15
sg681
I350
sg3232
I2
sg358
I7
sg2246
I1
sg1079
I5
sg1350
I168
sg1884
I2
sg615
I3
sg2909
I2
sg2912
I1
sg438
I14
sg1116
I2
sg2348
I5
sg1733
I2
sg2941
I1
sg1358
I6
sg1203
I23
sg1159
I2
sg163
I14
sg2989
I1
sg851
I1
sg998
I97
sg2027
I2
sg2168
I2
sg626
I2
sg653
I2
sg2670
I3
sg1857
I7
sg14
I15
sg1932
I1
sg176
I7
sg658
I1
sg2072
I3
sg2710
I1
sg1078
I2
sg1409
I12
sg1374
I65
sg1260
I7
sg1082
I7
sg1800
I6
sg1880
I2
sg702
I4
sg916
I10
sg236
I24
sg2621
I1
sg2865
I1
sg1545
I26
sg2603
I1
sg3190
I1
sg788
I8
sg2988
I1
sg1644
I2
sg38
I156
sg273
I8
sg131
I19
sg742
I7
sg2217
I4
sg2453
I2
sg657
I10
sg1934
I1
sg660
I2
sg897
I5
sg1557
I4
sg3166
I1
sg3185
I1
sg2365
I1
sg1979
I1
sg919
I72
sg122
I56
sg1138
I32
sg217
I5
sg523
I5
sg387
I3
sg2549
I1
sg3096
I1
sg652
I3
sg2844
I1
sg988
I9
sg351
I6
sg864
I12
sg1554
I12
sg1172
I1
sg1163
I1
sg1902
I1
sg510
I7
sg2581
I1
sg1075
I5
sg397
I8
sg2609
I5
sg596
I64
sg1817
I1
sg746
I58
sg71
I456
sg2346
I6
sg162
I1
sg1014
I1
sg2658
I1
sg536
I1
sg544
I43
sg1869
I2
sg1338
I1
sg1808
I3
sg712
I2
sg757
I5
sg2971
I1
sg1103
I2
sg1286
I5
sg970
I2
sg896
I1
sg231
I33
sg429
I15
sg2922
I1
sg2997
I1
sg554
I2
sg254
I58
sg1066
I8
sg2727
I2
sg285
I33
sg2512
I2
sg2233
I2
sg2343
I1
sg2777
I1
sg666
I12
sg1048
I1
sg2808
I1
sg2070
I1
sg2838
I1
sg477
I4
sg2094
I3
sg2026
I2
sg948
I17
sg3084
I1
sg1806
I3
sg2004
I1
sg316
I3
sg578
I5
sg776
I6
sg889
I3
sg2438
I1
sg655
I2
sg2819
I1
sg2816
I2
sg890
I3
sg3147
I2
sg305
I4
sg2798
I1
sg908
I3
sg961
I14
sg166
I1
sg2617
I2
sg938
I1
sg1910
I2
sg93
I44
sg2326
I1
sg1714
I5
sg1322
I1
sg819
I34
sg2204
I14
sg2268
I1
sg75
I9
sg1760
I6
sg2367
I1
sg2441
I1
sg18
I1011
sg1081
I2
sg225
I15
sg1471
I7
sg1382
I5
sg1525
I2
sg717
I1
sg2154
I1
sg480
I2
sg3077
I1
sg1233
I24
sg2232
I12
sg1529
I6
sg2721
I2
sg726
I2
sg111
I43
sg1803
I7
sg945
I3
sg1031
I4
sg745
I11
sg1397
I5
sg572
I2
sg1465
I3
sg1012
I15
sg1924
I10
sg3062
I1
sg2589
I1
sg1643
I15
sg1530
I1
sg3221
I1
sg2419
I1
sg2317
I1
sg2302
I1
sg431
I2
sg2829
I4
sg1001
I2
sg1038
I35
sg1510
I6
sg3130
I1
sg2189
I9
sg2466
I1
sg137
I15
sg2295
I2
sg2415
I2
sg2253
I1
sg1917
I2
sg2081
I1
sg954
I37
sg1728
I25
sg1136
I2
sg1269
I2
sg3082
I1
sg237
I2
sg207
I10
sg1481
I5
sg1069
I1
sg335
I8
sg414
I4
sg47
I245
sg2391
I2
sg2148
I3
sg2711
I2
sg931
I1
sg2999
I2
sg440
I21
sg468
I1
sg3029
I1
sg1502
I1
sg528
I4
sg2071
I3
sg2586
I1
sg644
I44
sg790
I2
sg3239
I1
sg2461
I10
sg1454
I1
sg1177
I23
sg2286
I2
sg547
I2
sg701
I3
sg1221
I1
sg1127
I4
sg978
I6
sg2623
I1
sg383
I26
sg1270
I3
sg1630
I23
sg3202
I1
sg1095
I3
sg1071
I21
sg2294
I1
sg209
I3
sg2084
I1
sg1602
I2
sg1954
I1
sg2022
I4
sg1438
I36
sg2073
I3
sg3173
I1
sg485
I4
sg2458
I2
sg2966
I1
sg1859
I2
sg2643
I4
sg645
I3
sg2273
I4
sg568
I82
sg1288
I36
sg2468
I2
sg2112
I3
sg2212
I2
sg521
I2
sg2249
I4
sg1161
I3
sg549
I1
sg1283
I2
sg1216
I15
sg1785
I1
sg2402
I2
sg309
I4
sg341
I36
sg2676
I1
sg1020
I1
sg483
I15
sg858
I2
sg1732
I2
sg2969
I1
sg2931
I1
sg1881
I1
sg842
I3
sg2498
I2
sg562
I15
sg337
I5
sg1993
I27
sg1431
I1
sg96
I9
sg1025
I1
sg1562
I3
sg2033
I6
sg68
I42
sg2370
I5
sg456
I22
sg1253
I6
sg2695
I2
sg892
I45
sg2208
I3
sg1977
I10
sg2840
I1
sg1402
I10
sg2016
I2
sg1783
I8
sg2734
I2
sg1342
I1
sg2705
I3
sg102
I864
sg2303
I1
sg1989
I2
sg1624
I3
sg2056
I1
sg126
I17
sg507
I2
sg1377
I1
sg1935
I1
sg2582
I3
sg374
I1
sg1429
I17
sg1175
I8
sg1911
I3
sg2122
I1
sg2807
I6
sg1281
I1
sg2535
I3
sg3231
I2
sg3188
I1
sg1218
I2
sg638
I2
sg3168
I1
sg2230
I4
sg365
I4
sg1740
I3
sg1706
I1
sg983
I12
sg1214
I2
sg581
I6
sg2622
I1
sg475
I7
sg1507
I1
sg2245
I1
sg210
I8
sg2839
I1
sg224
I223
sg1739
I1
sg8
I10
sg598
I794
sg1848
I1
sg906
I1
sg2266
I1
sg2895
I1
sg2866
I1
sg865
I45
sg1073
I5
sg322
I11
sg957
I1
sg2173
I1
sg1592
I1
sg2627
I2
sg1945
I1
sg198
I2
sg2299
I1
sg2817
I1
sg912
I5
sg2771
I2
sg2972
I1
sg398
I253
sg834
I1
sg2225
I1
sg822
I151
sg646
I154
sg2916
I3
sg821
I4
sg299
I2
sg2329
I1
sg141
I5
sg1274
I2
sg1574
I6
sg594
I1
sg723
I4
sg929
I17
sg2202
I6
sg1213
I3
sg1391
I4
sg1091
I2
sg2664
I1
sg388
I1
sg1569
I2
sg2728
I2
sg2284
I24
sg2635
I1
sg2446
I1
sg370
I52
sg779
I343
sg112
I16
sg1423
I42
sg1059
I1
sg1729
I6
sg2067
I1
sg3026
I1
sg1907
I1
sg2310
I1
sg1493
I4
sg385
I1
sg2761
I1
sg1877
I2
sg2092
I4
sg466
I6
sg3078
I2
sg359
I13
sg443
I25
sg200
I22
sg361
I1
sg1440
I2
sg19
I663
sg3141
I2
sg994
I2
sg1316
I2
sg3191
I1
sg1039
I256
sg195
I320
sg3116
I1
sg2641
I2
sg1618
I9
sg1044
I4
sg2131
I1
sg1967
I1
sg161
I3
sg2342
I1
sg2686
I2
sg792
I1
sg1114
I46
sg1155
I2
sg805
I15
sg1716
I3
sg2218
I1
sg1290
I6
sg2492
I1
sg2021
I4
sg795
I1
sg1217
I2
sg1724
I1
sg1222
I2
sg2717
I2
sg2826
I2
sg2183
I1
sg641
I25
sg1833
I4
sg1804
I1
sg449
I8
sg1651
I1
sg2793
I2
sg2304
I4
sg1719
I1
sg1987
I6
sg1743
I1
sg582
I30
sg3155
I1
sg1478
I18
sg192
I363
sg3086
I1
sg109
I45
sg1184
I3
sg1265
I9
sg2917
I1
sg1258
I1
sg2137
I6
sg1834
I8
sg150
I2
sg2701
I2
sg1332
I2
sg1777
I6
sg1183
I9
sg2642
I2
sg1323
I7
sg956
I22
sg1564
I4
sg2064
I4
sg199
I29
sg1333
I1
sg1476
I1
sg699
I20
sg1679
I1
sg613
I1563
sg2009
I9
sg1780
I4
sg1697
I10
sg2959
I1
sg132
I9
sg1301
I26
sg2732
I1
sg1801
I3
sg230
I1
sg348
I770
sg9
I20
sg780
I3
sg459
I7
sg844
I8
sg2548
I1
sg1380
I2
sg2010
I1
sg1140
I1
sg2801
I3
sg1329
I7
sg416
I2
sg2708
I1
sg1232
I2
sg2504
I1
sg2713
I4
sg1621
I7
sg2924
I2
sg2882
I1
sg1087
I3
sg490
I6
sg3211
I1
sg1369
I2
sg2133
I1
sg3196
I2
sg589
I2
sg587
I3
sg498
I2
sg2842
I2
sg796
I2
sg1156
I2
sg2516
I1
sg3158
I1
sg762
I9
sg2248
I3
sg1841
I3
sg2594
I1
sg1656
I36
sg354
I6
sg2437
I3
sg2149
I1
sg2469
I7
sg1871
I2
sg1206
I2
sg1470
I3
sg1441
I2
sg616
I3
sg2804
I5
sg524
I6
sg30
I15
sg634
I1
sg2782
I1
sg312
I1
sg750
I5
sg2042
I5
sg2350
I1
sg2491
I2
sg1259
I1
sg2578
I5
sg142
I35
sg976
I1
sg2629
I1
sg1822
I3
sg614
I4
sg513
I3
sg1057
I1
sg1865
I3
sg2875
I1
sg692
I6
sg1401
I3
sg730
I2
sg1765
I2
sg1580
I4
sg632
I19
sg1248
I8
sg2891
I1
sg1846
I12
sg2965
I3
sg1796
I2
sg2899
I1
sg2700
I24
sg60
I11
sg1879
I1
sg1807
I4
sg3154
I1
sg465
I3
sg1475
I11
sg2528
I1
sg2667
I2
sg3112
I1
sg959
I7
sg1973
I5
sg1847
I1
sg1746
I14
sg1464
I1
sg1375
I76
sg1581
I4
sg794
I1
sg1646
I6
sg2637
I3
sg1182
I3
sg2077
I1
sg2849
I1
sg63
I14
sg2956
I2
sg1347
I9
sg731
I7
sg31
I174
sg2634
I1
sg499
I13
sg2316
I1
sg2241
I6
sg2192
I3
sg2672
I2
sg987
I1
sg1412
I3
sg1349
I1
sg3060
I6
sg324
I18
sg2648
I1
sg1601
I2
sg2543
I9
sg2207
I1
sg3181
I1
sg752
I6
sg3203
I1
sg3038
I3
sg433
I43
sg338
I9
sg1925
I5
sg1999
I2
sg1370
I11
sg2861
I1
sg346
I2
sg2894
I1
sg2769
I1
sg2980
I1
sg1181
I1
sg2984
I1
sg1704
I14
sg2902
I1
sg12
I90
sg2234
I4
sg2759
I1
sg966
I5
sg1151
I1
sg617
I1
sg602
I13
sg1011
I1
sg2539
I1
sg691
I2
sg250
I4
sg2833
I1
sg3223
I1
sg3030
I2
sg618
I36
sg1749
I3
sg35
I3
sg2121
I4
sg267
I19
sg2132
I5
sg1505
I1
sg2403
I2
sg1641
I2
sg164
I41
sg789
I1
sg3140
I1
sg3092
I1
sg1045
I3
sg2843
I1
sg55
I1458
sg3182
I1
sg461
I30
sg628
I13
sg2714
I1
sg288
I31
sg114
I27
sg2981
I6
sg1122
I3
sg1421
I4
sg512
I11
sg950
I1
sg2854
I1
sg279
I112
sg1772
I2
sg2176
I9
sg325
I4
sg3216
I2
sg803
I4
sg247
I17
sg2789
I3
sg785
I2
sg2857
I1
sg778
I7
sg2858
I1
sg1134
I10
sg806
I6
sg3035
I1
sg2172
I1
sg304
I1
sg33
I65
sg484
I1
sg2198
I9
sg222
I7
sg1118
I4
sg1245
I6
sg457
I3
sg2052
I2
sg1148
I11
sg2470
I1
sg875
I5
sg3033
I1
sg601
I2
sg2292
I1
sg709
I1
sg1831
I3
sg1995
I11
sg2152
I2
sg627
I4
sg2321
I6
sg886
I123
sg2933
I2
sg1457
I6
sg1527
I10
sg899
I2
sg347
I4
sg1055
I10
sg905
I12
sg853
I8
sg935
I41
sg825
I23
sg3115
I1
sg981
I2
sg603
I163
sg901
I12
sg1528
I4
sg2089
I3
sg2693
I6
sg953
I8
sg588
I2
sg2407
I4
sg1758
I1
sg1819
I10
sg1229
I8
sg2300
I2
sg605
I1
sg661
I1
sg1718
I16
sg3129
I1
sg815
I5
sg2097
I1
sg1383
I2
sg1671
I8
sg1669
I7
sg1504
I2
sg1185
I9
sg1711
I8
sg1837
I21
sg1231
I20
sg270
I1
sg1854
I1
sg2712
I1
sg955
I4
sg3108
I1
sg2625
I1
sg1608
I16
sg1250
I8
sg400
I17
sg2434
I3
sg1193
I18
sg1635
I2
sg3111
I2
sg2274
I1
sg2188
I1
sg1926
I2
sg2386
I1
sg1416
I2
sg424
I51
sg2596
I2
sg409
I16
sg850
I3
sg2908
I2
sg2657
I2
sg878
I5
sg26
I52
sg2809
I1
sg1049
I1
sg2763
I1
sg1753
I13
sg1180
I5
sg2906
I1
sg2689
I2
sg2963
I2
sg2730
I1
sg2416
I3
sg1088
I1
sg971
I17
sg318
I10
sg3080
I1
sg2380
I5
sg1344
I2
sg2123
I6
sg2608
I1
sg3074
I2
sg421
I6
sg2254
I1
sg1497
I7
sg2315
I7
sg2618
I2
sg1276
I19
sg495
I6
sg2472
I1
sg1372
I21
sg437
I22
sg89
I64
sg688
I1
sg2162
I3
sg1657
I6
sg2484
I1
sg2143
I4
sg2795
I2
sg1867
I2
sg555
I2
sg2595
I1
sg2738
I1
sg2186
I1
sg2479
I5
sg1813
I4
sg1086
I5
sg2267
I1
sg716
I1
sg2892
I1
sg2856
I1
sg1850
I4
sg1640
I3
sg2119
I2
sg1327
I3
sg1952
I1
sg2372
I4
sg204
I8
sg1814
I1
sg1164
I7
sg3187
I1
sg1264
I1
sg3048
I1
sg2784
I1
sg504
I4
sg3063
I7
sg923
I1
sg991
I1
sg1875
I3
sg1013
I15
sg1097
I6
sg442
I2
sg3151
I2
sg972
I1
sg3020
I2
sg862
I3
sg1930
I3
sg2007
I5
sg182
I10
sg2944
I1
sg2129
I9
sg1976
I2
sg1178
I16
sg1674
I1
sg1046
I5
sg514
I6
sg2352
I2
sg2573
I7
sg2691
I1
sg1568
I1
sg2647
I4
sg2598
I9
sg2360
I1
sg489
I3
sg3126
I3
sg74
I25
sg3046
I1
sg1139
I2
sg3005
I2
sg243
I16
sg1168
I21
sg3189
I1
sg1489
I5
sg28
I20
sg683
I30
sg2781
I2
sg913
I7
sg743
I20
sg2788
I2
sg520
I9
sg249
I8
sg2659
I1
sg2306
I1
sg630
I1
sg516
I46
sg3205
I2
sg669
I184
sg11
I7
sg1485
I2
sg1843
I1
sg2776
I5
sg727
I1
sg2448
I2
sg2883
I2
sg868
I1
sg3055
I2
sg2459
I2
sg1959
I3
sg1894
I2
sg3220
I2
sg3128
I1
sg2592
I1
sg352
I180
sg814
I15
sg570
I3
sg1774
I2
sg2755
I1
sg898
I1
sg2768
I1
sg1462
I1
sg964
I5
sg531
I1
sg2822
I1
sg1633
I2
sg515
I7
sg3118
I1
sg2645
I1
sg193
I7
sg2725
I2
sg3079
I1
sg2770
I1
sg2399
I2
sg2612
I4
sg3090
I1
sg1324
I1
sg3067
I1
sg177
I126
sg2632
I1
sg319
I4
sg147
I724
sg1821
I1
sg1652
I1
sg801
I22
sg2597
I2
sg1026
I1
sg1734
I2
sg458
I7
sg990
I9
sg2375
I2
sg1511
I4
sg768
I4
sg1520
I4
sg2345
I4
sg1325
I19
sg282
I2
sg855
I1
sg2251
I31
sg432
I10
sg3049
I1
sg845
I4
sg2041
I10
sg1430
I5
sg2153
I4
sg1676
I2
sg2749
I3
sg1689
I19
sg2837
I1
sg1956
I14
sg783
I37
sg643
I30
sg1744
I2
sg985
I2
sg2421
I1
sg1360
I7
sg3036
I3
sg472
I12
sg2385
I1
sg782
I3
sg2289
I2
sg2260
I1
sg827
I18
sg1352
I2
sg1083
I9
sg1131
I2
sg817
I15
sg3122
I1
sg2792
I1
sg3194
I1
sg3012
I1
sg1061
I2
sg1612
I6
sg2851
I1
sg2058
I2
sg2387
I4
sg1089
I6
sg2347
I1
sg1653
I2
sg3174
I1
sg690
I2
sg1364
I6
sg1373
I5
sg1816
I1
sg2531
I7
sg2762
I1
sg2668
I3
sg386
I1
sg2802
I2
sg2669
I2
sg1933
I5
sg1637
I1
sg2238
I2
sg1567
I6
sg600
I5
sg1561
I5
sg426
I2
sg1300
I2
sg1292
I4
sg1709
I8
sg2731
I1
sg1100
I2
sg1994
I2
sg1763
I6
sg2086
I1
sg331
I8
sg1572
I1
sg2813
I1
sg2979
I3
sg1620
I2
sg2703
I4
sg2236
I6
sg330
I2
sg2556
I7
sg1827
I1
sg154
I13
sg1257
I1
sg1928
I1
sg99
I27
sg1971
I10
sg1170
I1
sg211
I2
sg76
I96
sg2552
I1
sg373
I35
sg1398
I4
sg1551
I70
sg1605
I7
sg1636
I2
sg2476
I7
sg2985
I2
sg2877
I1
sg1792
I1
sg569
I44
sg941
I3
sg2797
I3
sg2024
I5
sg1241
I1
sg1395
I24
sg3159
I1
sg1870
I6
sg997
I2
sg551
I7
sg2383
I2
sg81
I24
sg283
I1
sg1937
I2
sg816
I5
sg1356
I24
sg493
I17
sg1582
I1
sg1727
I8
sg2836
I3
sg1006
I55
sg240
I6
sg2990
I1
sg2515
I1
sg2257
I1
sg1941
I1
sg1448
I5
sg2358
I1
sg1665
I6
sg205
I4
sg1284
I1
sg2359
I1
sg2775
I1
sg967
I2
sg2464
I2
sg3163
I1
sg917
I7
sg2704
I5
sg567
I31
sg497
I45
sg1235
I7
sg3100
I1
sg1254
I4
sg156
I2
sg576
I1
sg1683
I13
sg1702
I12
sg165
I7
sg2364
I1
sg208
I11
sg473
I64
sg1705
I1
sg2344
I1
sg1873
I3
sg2354
I2
sg2794
I1
sg153
I38
sg631
I8
sg2557
I1
sg2764
I1
sg1770
I17
sg2987
I3
sg2062
I2
sg525
I37
sg2215
I1
sg375
I2
sg697
I10
sg1204
I20
sg1047
I2
sg1387
I1
sg2443
I1
sg2445
I1
sg227
I9
sg1299
I1
sg381
I9
sg2414
I1
sg1600
I20
sg1339
I1
sg2954
I1
sg2278
I27
sg20
I55
sg2787
I2
sg2774
I1
sg1018
I1
sg2940
I1
sg2514
I1
sg1533
I1
sg2885
I2
sg2680
I4
sg203
I36
sg2210
I2
sg2158
I3
sg2529
I5
sg1487
I1
sg1513
I1
sg3124
I4
sg2880
I1
sg2025
I3
sg1403
I15
sg2422
I2
sg761
I1
sg3226
I1
sg2871
I1
sg367
I5
sg1914
I1
sg2821
I1
sg1426
I14
sg915
I1
sg1835
I1
sg51
I5
sg1384
I7
sg1407
I15
sg2449
I3
sg1252
I1
sg2197
I2
sg1790
I3
sg2991
I1
sg891
I159
sg3019
I2
sg1503
I1
sg922
I4
sg2918
I1
sg3070
I1
sg579
I2
sg2258
I1
sg2706
I2
sg2424
I1
sg2242
I2
sg2682
I1
sg2495
I1
sg2135
I1
sg1244
I29
sg1211
I1
sg1699
I13
sg748
I2
sg1474
I7
sg2830
I2
sg1614
I2
sg1238
I3
sg1341
I1
sg450
I44
sg1538
I7
sg733
I3
sg2962
I2
sg2547
I7
sg27
I27
sg2805
I3
sg1279
I2
sg2008
I3
sg3076
I1
sg1496
I51
sg179
I21
sg2413
I1
sg2226
I2
sg3161
I1
sg1698
I3
sg232
I8
sg2091
I1
sg357
I2
sg1285
I6
sg936
I2
sg1615
I7
sg371
I5
sg2864
I1
sg1981
I1
sg2888
I1
sg355
I105
sg675
I52
sg2973
I1
sg3050
I1
sg1860
I16
sg2049
I1
sg777
I5
sg1410
I3
sg2256
I8
sg255
I1
sg1519
I2
sg363
I1
sg1077
I1
sg1517
I1
sg1201
I2
sg2318
I10
sg766
I1
sg1920
I2
sg1239
I2
sg2946
I1
sg2601
I1
sg2104
I1
sg3066
I1
sg787
I4
sg1922
I1
sg1795
I4
sg2203
I3
sg773
I1
sg2870
I3
sg1053
I1
sg1951
I1
sg146
I33
sg1832
I2
sg1166
I5
sg3199
I1
sg2330
I5
sg2577
I9
sg327
I9
sg665
I10
sg1949
I2
sg134
I2
sg1862
I2
sg145
I9
sg2814
I1
sg2151
I6
sg1598
I1
sg1853
I1
sg3133
I1
sg2497
I1
sg2401
I3
sg168
I29
sg2616
I1
sg873
I6
sg1896
I2
sg591
I2
sg448
I13
sg3169
I1
sg2003
I8
sg2935
I1
sg1146
I1
sg2048
I6
sg3054
I2
sg769
I1
sg1195
I11
sg1962
I2
sg3162
I2
sg2447
I1
sg1909
I6
sg2879
I1
sg2517
I1
sg103
I115
sg1459
I4
sg2575
I1
sg3241
I1
sg2014
I6
sg2109
I1
sg1576
I2
sg434
I19
sg2355
I1
sg158
I60
sg1773
I6
sg2456
I2
sg2139
I6
sg924
I2
sg2477
I1
sg1261
I10
sg1623
I6
sg2388
I3
sg1506
I1
sg2653
I1
sg1052
I5
sg2607
I2
sg3233
I1
sg2587
I1
sg2506
I2
sg1663
I6
sg1123
I18
sg1791
I2
sg756
I1
sg2803
I3
sg1199
I3
sg2397
I3
sg2827
I1
sg2262
I2
sg1247
I3
sg310
I1
sg1823
I2
sg3073
I1
sg584
I42
sg2729
I2
sg2938
I2
sg296
I6
sg2282
I13
sg3110
I2
sg2687
I2
sg95
I2
sg739
I1
sg2068
I2
sg1443
I7
sg1072
I3
sg823
I2
sg1700
I1
sg3015
I1
sg1946
I1
sg791
I23
sg2977
I1
sg1028
I4
sg2740
I1
sg505
I65
sg263
I3
sg2035
I1
sg1378
I3
sg1887
I1
sg1864
I3
sg1797
I2
sg1162
I1
sg2013
I1
sg1889
I5
sg1762
I10
sg671
I1
sg686
I14
sg963
I6
sg2405
I6
sg97
I10
sg694
I2
sg1096
I16
sg2560
I5
sg3083
I1
sg2537
I1
sg315
I28
sg2457
I2
sg219
I42
sg2630
I1
sg2743
I7
sg1960
I3
sg2663
I11
sg1649
I1
sg1366
I5
sg453
I25
sg672
I1
sg178
I18
sg278
I2
sg786
I2
sg1318
I4
sg2308
I6
sg1996
I6
sg1931
I1
sg419
I14
sg640
I5
sg545
I4
sg580
I94
sg117
I1
sg1176
I32
sg1638
I1
sg1737
I4
sg2460
I1
sg2500
I2
sg2425
I1
sg1068
I10
sg511
I34
sg1101
I1
sg197
I2
sg1266
I6
sg2174
I2
sg561
I7
sg2890
I2
sg708
I183
sg808
I8
sg1067
I1
sg1895
I1
sg194
I27
sg1064
I10
sg3192
I1
sg1997
I5
sg1433
I4
sg3218
I1
sg2205
I6
sg775
I5
sg2028
I1
sg407
I314
sg1179
I4
sg353
I2
sg1647
I1
sg1882
I9
sg40
I7
sg2196
I5
sg1786
I1
sg1586
I31
sg1473
I3
sg949
I8
sg695
I1
sg246
I17
sg1845
I1
sg1132
I2
sg1171
I1
sg1983
I1
sg2147
I9
sg1108
I4
sg1540
I29
sg3138
I1
sg2646
I1
sg2111
I1
sg228
I3
sg2860
I1
sg1825
I1
sg2868
I1
sg1639
I6
sg965
I11
sg2893
I2
sg506
I1
sg2957
I1
sg2604
I1
sg2020
I4
sg841
I19
sg1289
I2
sg3144
I1
sg3132
I1
sg1550
I2
sg1357
I2
sg2626
I1
sg451
I2
sg659
I1
sg2709
I1
sg918
I6
sg2180
I1
sg115
I17
sg1367
I9
sg740
I1
sg857
I1
sg2378
I2
sg2454
I2
sg212
I2
sg3240
I1
sg2351
I2
sg3075
I1
sg2002
I3
sg280
I6
sg2541
I2
sg3198
I1
sg3178
I1
sg3224
I1
sg744
I10
sg3113
I1
sg1359
I9
sg1752
I1
sg1607
I20
sg703
I3
sg252
I9
sg2288
I1
sg1468
I2
sg2166
I3
sg503
I1
sg1236
I2
sg3229
I1
sg1187
I2
sg1003
I1
sg3228
I1
sg2313
I2
sg2913
I1
sg2878
I1
sg1434
I7
sg3064
I1
sg2165
I1
sg2231
I1
sg1768
I1
sg1552
I7
sg1812
I1
sg2293
I2
sg2451
I3
sg874
I29
sg3242
I1
sg1906
I2
sg286
I4
sg2099
I9
sg3206
I2
sg1400
I2
sg2261
I13
sg2079
I5
sg527
I2
sg1691
I5
sg1074
I6
sg574
I77
sg1938
I1
sg1756
I5
sg1093
I10
sg2169
I1
sg1268
I1
sg1631
I5
sg951
I44
sg1153
I1
sg2564
I2
sg563
I4
sg502
I7
sg274
I158
sg1381
I1
sg2855
I1
sg1174
I1
sg3004
I2
sg1111
I2
sg877
I3
sg1515
I2
sg1009
I5
sg3117
I1
sg2108
I2
sg2076
I2
sg3121
I1
sg610
I6
sg118
I9
sg2185
I1
sg3156
I1
sg1788
I22
sg2724
I1
sg2756
I12
sg1307
I1
sg2994
I1
sg301
I2
sg2636
I3
sg65
I2
sg1616
I1
sg559
I50
sg2285
I1
sg992
I1
sg685
I7
sg3047
I2
sg2605
I1
sg2213
I1
sg2518
I2
sg1099
I2
sg2576
I2
sg185
I64
sg869
I1
sg326
I14
sg721
I20
sg3059
I1
sg2945
I1
sg3125
I1
sg2465
I1
sg1514
I1
sg265
I5
sg1243
I7
sg1536
I1
sg1090
I6
sg2505
I1
sg2947
I1
sg2723
I2
sg1701
I26
sg1296
I3
sg344
I2
sg2032
I4
sg1435
I6
sg1634
I2
sg2240
I1
sg2992
I1
sg2269
I1
sg368
I2
sg1173
I1
sg2314
I2
sg1219
I1
sg2134
I9
sg2323
I1
sg1455
I8
sg1904
I1
sg2015
I3
sg509
I4
sg2904
I8
sg670
I4
sg2655
I1
sg125
I15
sg1563
I6
sg2942
I1
sg1456
I3
sg830
I3
sg1573
I9
sg3088
I3
sg2790
I2
sg909
I1
sg1005
I8
sg41
I7
sg718
I4
sg1419
I24
sg482
I1
sg1943
I82
sg3195
I2
sg1754
I18
sg2960
I1
sg2125
I4
sg620
I2
sg427
I153
sg1583
I1
sg396
I24
sg707
I29
sg2376
I1
sg2937
I1
sg1029
I3
sg1919
I1
sg2532
I1
sg2544
I1
sg107
I3
sg1778
I1
sg3085
I1
sg155
I2
sg3068
I1
sg720
I1
sg1112
I3
sg741
I3
sg1393
I1
sg914
I3
sg2538
I1
sg543
I9
sg3043
I2
sg625
I1
sg920
I8
sg2786
I1
sg1625
I6
sg2389
I2
sg3105
I1
sg2440
I7
sg1390
I3
sg138
I19
sg1811
I5
sg2572
I1
sg3039
I2
sg2673
I3
sg1555
I2
sg2156
I3
sg1764
I2
sg1755
I5
sg1559
I7
sg962
I5
sg1658
I7
sg1287
I3
sg201
I3
sg418
I36
sg2593
I1
sg637
I5
sg3153
I1
sg2341
I1
sg575
I4
sg1721
I1
sg2382
I8
sg2431
I1
sg2371
I5
sg3243
I1
sg3160
I1
sg1818
I1
sg1165
I4
sg1542
I7
sg1501
I7
sg982
I6
sg1128
I1
sg2863
I1
sg356
I6
sg676
I8
sg3150
I2
sg557
I24
sg2050
I1
sg2542
I15
sg1030
I1
sg269
I3
sg73
I27
sg678
I11
sg1893
I1
sg1275
I12
sg1021
I3
sg1297
I2
sg15
I17
sg993
I1
sg713
I8
sg2075
I1
sg85
I983
sg558
I160
sg1731
I2
sg1054
I1
sg1145
I1
sg2558
I1
sg2828
I1
sg430
I1
sg34
I25
sg2785
I1
sg1518
I6
sg439
I12
sg3136
I1
sg1157
I7
sg2182
I5
sg2737
I2
sg519
I5
sg2060
I1
sg2322
I7
sg3052
I1
sg1345
I2
sg366
I4
sg812
I4
sg1422
I5
sg2684
I4
sg871
I4
sg2615
I1
sg2214
I5
sg1539
I1
sg1748
I6
sg2051
I3
sg663
I2
sg2193
I1
sg2952
I1
sg1516
I12
sg1442
I49
sg947
I1
sg1991
I9
sg1512
I2
sg1197
I1
sg590
I3
sg417
I46
sg1809
I2
sg1759
I4
sg1838
I1
sg2462
I1
sg2408
I11
sg2943
I1
sg2848
I1
sg2280
I2
sg245
I3
sg101
I17
sg2633
I3
sg1794
I2
sg2319
I11
sg3167
I1
sg1970
I1
sg2624
I1
sg3131
I1
sg2588
I2
sg1351
I6
sg1094
I5
sg2118
I2
sg170
I1
sg2179
I4
sg268
I5
sg2718
I4
sg2835
I1
sg2619
I4
sg2335
I4
sg3081
I3
sg183
I5
sg2029
I2
sg307
I30
sg2986
I4
sg969
I6
sg2423
I1
sg1703
I1
sg293
I147
sg656
I5
sg848
I2
sg3210
I1
sg597
I6
sg2745
I1
sg2887
I5
sg3149
I1
sg3099
I1
sg1898
I32
sg2584
I2
sg2936
I3
sg1212
I4
sg1230
I1
sg332
I3
sg1484
I14
sg1007
I35
sg1942
I4
sg599
I2
sg2747
I1
sg2055
I1
sg667
I5
sg2384
I1
sg1903
I3
sg2679
I1
sg2298
I2
sg3013
I3
sg2098
I6
sg1154
I4
sg1500
I5
sg2311
I3
sg1532
I30
sg2526
I2
sg1191
I7
sg2599
I2
sg3022
I5
sg2889
I2
sg3089
I2
sg1242
I1
sg1985
I2
sg234
I11
sg21
I3
sg1766
I1
sg1023
I2
sg826
I29
sg1022
I6
sg1466
I2
sg2237
I2
sg1237
I1
sg2066
I2
sg2340
I3
sg2649
I2
sg323
I40
sg704
I2
sg5
I6510
sg3098
I5
sg44
I55
sg2178
I1
sg306
I8
sg1686
I2
sg639
I2
sg2126
I2
sg2488
I2
sg2155
I1
sg271
I50
sg1531
I2
sg765
I2
sg2753
I1
sg1537
I2
sg1396
I3
sg171
I40
sg2675
I1
sg2707
I3
sg946
I8
sg813
I7
sg532
I1
sg2244
I1
sg2503
I10
sg1722
I3
sg973
I1
sg1566
I3
sg2093
I2
sg1667
I13
sg910
I2
sg66
I39
sg2095
I5
sg2996
I1
sg2235
I2
sg1655
I3
sg2211
I17
sg1076
I25
sg16
I6
sg1447
I1
sg52
I2
sg2221
I1
sg91
I34
sg1483
I2
sg1579
I2
sg328
I6
sg415
I1
sg1508
I10
sg1851
I20
sg980
I3
sg2357
I5
sg151
I3896
sg2489
I1
sg1980
I8
sg1302
I2
sg1486
I4
sg2811
I1
sg843
I60
sg105
I24
sg2496
I1
sg1939
I3
sg2333
I5
sg2018
I1
sg1130
I1
sg1599
I2
sg989
I6
sg1659
I10
sg2525
I1
sg2876
I1
sg2400
I1
sg190
I5
sg284
I1
sg90
I21
sg939
I1
sg2279
I8
sg1272
I1
sg3186
I1
sg595
I28
sg2751
I1
sg380
I4
sg58
I19
sg2096
I3
sg1642
I1
sg2932
I1
sg32
I83
sg2170
I5
sg2656
I4
sg2053
I1
sg1458
I3
sg2553
I1
sg577
I1
sg1326
I1
sg1955
I1
sg2523
I5
sg2181
I1
sg2565
I4
sg811
I7
sg1626
I2
sg1124
I10
sg1228
I152
sg3006
I1
sg1775
I10
sg1104
I5
sg3001
I2
sg2223
I1
sg3093
I4
sg1829
I3
sg1730
I1
sg2949
I1
sg119
I11
sg763
I17
sg2631
I1
sg1863
I10
sg728
I90
sg290
I1
sg2853
I1
sg3214
I1
sg2150
I2
sg2628
I1
sg2921
I2
sg1984
I1
sg1062
I3
sg1002
I10
sg706
I1
sg952
I19
sg2334
I2
sg1113
I2
sg1417
I1
sg1781
I3
sg1855
I1
sg2570
I10
sg1524
I2
sg937
I2
sg2271
I2
sg1591
I3
sg2873
I1
sg1622
I1
sg218
I16
sg3165
I1
sg1453
I41
sg2128
I1
sg1611
I2
sg2551
I2
sg405
I14
sg1098
I2
sg1861
I1
sg1379
I5
sg1133
I40
sg1425
I1
sg3032
I1
sg2305
I2
sg2349
I1
sg2930
I1
sg1544
I4
sg175
I23
sg17
I1640
sg1549
I1
sg1913
I7
sg925
I22
sg2953
I1
sg2993
I1
sg1058
I7
sg1521
I2
sg2381
I1
sg372
I8
sg3208
I1
sg3114
I2
sg1450
I3
sg1109
I20
sg1858
I4
sg2772
I2
sg384
I2
sg2699
I1
sg2905
I8
sg1335
I2
sg1293
I1
sg3127
I2
sg334
I1
sg1541
I6
sg2417
I7
sg3016
I1
sg3172
I1
sg2961
I1
sg3197
I1
sg1119
I5
sg3025
I2
sg1102
I18
sg2666
I1
sg1256
I23
sg37
I54
sg2715
I1
sg1415
I12
sg2832
I1
sg2309
I1
sg2661
I1
sg1420
I25
sg840
I12
sg2338
I2
sg98
I11
sg2080
I3
sg1876
I1
sg887
I1
sg3135
I2
sg496
I58
sg1271
I5
sg3027
I1
sg1957
I2
sg2744
I1
sg191
I2
sg680
I3
sg61
I8
sg612
I5
ss.